

Microchip MPLAB XC8 Assembler V3.00 build 20241204225717 
                                                                                               Mon Mar  3 22:29:05 2025

Microchip MPLAB XC8 C Compiler v3.00 (Free license) build 20241204225717 Og1 
     1                           	processor	16F887
     2                           	pagewidth 120
     3                           	opt	flic
     4                           	psect	nvBANK1,global,class=BANK1,space=1,delta=1,noexec
     5                           	psect	cinit,global,class=CODE,space=0,merge=1,delta=2
     6                           	psect	bssCOMMON,global,class=COMMON,space=1,delta=1,noexec
     7                           	psect	bssBANK1,global,class=BANK1,space=1,delta=1,noexec
     8                           	psect	cstackBANK1,global,class=BANK1,space=1,delta=1,noexec
     9                           	psect	cstackCOMMON,global,class=COMMON,space=1,delta=1,noexec
    10                           	psect	cstackBANK0,global,class=BANK0,space=1,delta=1,noexec
    11                           	psect	maintext,global,class=CODE,space=0,split=1,delta=2
    12                           	psect	text1,local,class=CODE,space=0,merge=1,delta=2
    13                           	psect	text2,local,class=CODE,space=0,merge=1,delta=2,group=1
    14                           	psect	text3,local,class=CODE,space=0,merge=1,delta=2,group=1
    15                           	psect	text4,local,class=CODE,space=0,merge=1,delta=2,group=1
    16                           	psect	text5,local,class=CODE,space=0,merge=1,delta=2,group=1
    17                           	psect	text6,local,class=CODE,space=0,merge=1,delta=2,group=1
    18                           	psect	text7,local,class=CODE,space=0,merge=1,delta=2
    19                           	psect	intentry,global,class=CODE,space=0,delta=2
    20                           	dabs	1,0x7E,2
    21     0000                     
    22                           ; Generated 12/10/2023 GMT
    23                           ; 
    24                           ; Copyright © 2023, Microchip Technology Inc. and its subsidiaries ("Microchip")
    25                           ; All rights reserved.
    26                           ; 
    27                           ; This software is developed by Microchip Technology Inc. and its subsidiaries ("Microch
      +                          ip").
    28                           ; 
    29                           ; Redistribution and use in source and binary forms, with or without modification, are
    30                           ; permitted provided that the following conditions are met:
    31                           ; 
    32                           ;     1. Redistributions of source code must retain the above copyright notice, this lis
      +                          t of
    33                           ;        conditions and the following disclaimer.
    34                           ; 
    35                           ;     2. Redistributions in binary form must reproduce the above copyright notice, this 
      +                          list
    36                           ;        of conditions and the following disclaimer in the documentation and/or other
    37                           ;        materials provided with the distribution. Publication is not required when
    38                           ;        this file is used in an embedded application.
    39                           ; 
    40                           ;     3. Microchip's name may not be used to endorse or promote products derived from th
      +                          is
    41                           ;        software without specific prior written permission.
    42                           ; 
    43                           ; THIS SOFTWARE IS PROVIDED BY MICROCHIP "AS IS" AND ANY EXPRESS OR IMPLIED WARRANTIES,
    44                           ; INCLUDING, BUT NOT LIMITED TO, THE IMPLIED WARRANTIES OF MERCHANTABILITY AND FITNESS F
      +                          OR
    45                           ; PURPOSE ARE DISCLAIMED.  IN NO EVENT SHALL MICROCHIP BE LIABLE FOR ANY DIRECT, INDIREC
      +                          T,
    46                           ; INCIDENTAL, SPECIAL, EXEMPLARY, OR CONSEQUENTIAL DAMAGES (INCLUDING BUT NOT LIMITED TO
    47                           ; PROCUREMENT OF SUBSTITUTE GOODS OR SERVICES; LOSS OF USE, DATA OR PROFITS; OR BUSINESS
    48                           ; INTERRUPTION) HOWSOEVER CAUSED AND ON ANY THEORY OF LIABILITY, WHETHER IN CONTRACT, ST
      +                          RICT
    49                           ; LIABILITY, OR TORT (INCLUDING NEGLIGENCE OR OTHERWISE) ARISING IN ANY WAY OUT OF THE U
      +                          SE OF
    50                           ; THIS SOFTWARE, EVEN IF ADVISED OF THE POSSIBILITY OF SUCH DAMAGE.
    51                           ; 
    52                           ; 
    53                           ; Code-generator required, PIC16F887 Definitions
    54                           ; 
    55                           ; SFR Addresses
    56     0004                     fsr             equ	4
    57     0004                     fsr0            equ	4
    58     0000                     indf            equ	0
    59     0000                     indf0           equ	0
    60     0002                     pc              equ	2
    61     0002                     pcl             equ	2
    62     000A                     pclath          equ	10
    63     0003                     status          equ	3
    64     0000                     INDF            equ	0	;# 
    65     0001                     TMR0            equ	1	;# 
    66     0002                     PCL             equ	2	;# 
    67     0003                     STATUS          equ	3	;# 
    68     0004                     FSR             equ	4	;# 
    69     0005                     PORTA           equ	5	;# 
    70     0006                     PORTB           equ	6	;# 
    71     0007                     PORTC           equ	7	;# 
    72     0008                     PORTD           equ	8	;# 
    73     0009                     PORTE           equ	9	;# 
    74     000A                     PCLATH          equ	10	;# 
    75     000B                     INTCON          equ	11	;# 
    76     000C                     PIR1            equ	12	;# 
    77     000D                     PIR2            equ	13	;# 
    78     000E                     TMR1            equ	14	;# 
    79     000E                     TMR1L           equ	14	;# 
    80     000F                     TMR1H           equ	15	;# 
    81     0010                     T1CON           equ	16	;# 
    82     0011                     TMR2            equ	17	;# 
    83     0012                     T2CON           equ	18	;# 
    84     0013                     SSPBUF          equ	19	;# 
    85     0014                     SSPCON          equ	20	;# 
    86     0015                     CCPR1           equ	21	;# 
    87     0015                     CCPR1L          equ	21	;# 
    88     0016                     CCPR1H          equ	22	;# 
    89     0017                     CCP1CON         equ	23	;# 
    90     0018                     RCSTA           equ	24	;# 
    91     0019                     TXREG           equ	25	;# 
    92     001A                     RCREG           equ	26	;# 
    93     001B                     CCPR2           equ	27	;# 
    94     001B                     CCPR2L          equ	27	;# 
    95     001C                     CCPR2H          equ	28	;# 
    96     001D                     CCP2CON         equ	29	;# 
    97     001E                     ADRESH          equ	30	;# 
    98     001F                     ADCON0          equ	31	;# 
    99     0081                     OPTION_REG      equ	129	;# 
   100     0085                     TRISA           equ	133	;# 
   101     0086                     TRISB           equ	134	;# 
   102     0087                     TRISC           equ	135	;# 
   103     0088                     TRISD           equ	136	;# 
   104     0089                     TRISE           equ	137	;# 
   105     008C                     PIE1            equ	140	;# 
   106     008D                     PIE2            equ	141	;# 
   107     008E                     PCON            equ	142	;# 
   108     008F                     OSCCON          equ	143	;# 
   109     0090                     OSCTUNE         equ	144	;# 
   110     0091                     SSPCON2         equ	145	;# 
   111     0092                     PR2             equ	146	;# 
   112     0093                     SSPADD          equ	147	;# 
   113     0093                     SSPMSK          equ	147	;# 
   114     0093                     MSK             equ	147	;# 
   115     0094                     SSPSTAT         equ	148	;# 
   116     0095                     WPUB            equ	149	;# 
   117     0096                     IOCB            equ	150	;# 
   118     0097                     VRCON           equ	151	;# 
   119     0098                     TXSTA           equ	152	;# 
   120     0099                     SPBRG           equ	153	;# 
   121     009A                     SPBRGH          equ	154	;# 
   122     009B                     PWM1CON         equ	155	;# 
   123     009C                     ECCPAS          equ	156	;# 
   124     009D                     PSTRCON         equ	157	;# 
   125     009E                     ADRESL          equ	158	;# 
   126     009F                     ADCON1          equ	159	;# 
   127     0105                     WDTCON          equ	261	;# 
   128     0107                     CM1CON0         equ	263	;# 
   129     0108                     CM2CON0         equ	264	;# 
   130     0109                     CM2CON1         equ	265	;# 
   131     010C                     EEDATA          equ	268	;# 
   132     010C                     EEDAT           equ	268	;# 
   133     010D                     EEADR           equ	269	;# 
   134     010E                     EEDATH          equ	270	;# 
   135     010F                     EEADRH          equ	271	;# 
   136     0185                     SRCON           equ	389	;# 
   137     0187                     BAUDCTL         equ	391	;# 
   138     0188                     ANSEL           equ	392	;# 
   139     0189                     ANSELH          equ	393	;# 
   140     018C                     EECON1          equ	396	;# 
   141     018D                     EECON2          equ	397	;# 
   142     0000                     INDF            equ	0	;# 
   143     0001                     TMR0            equ	1	;# 
   144     0002                     PCL             equ	2	;# 
   145     0003                     STATUS          equ	3	;# 
   146     0004                     FSR             equ	4	;# 
   147     0005                     PORTA           equ	5	;# 
   148     0006                     PORTB           equ	6	;# 
   149     0007                     PORTC           equ	7	;# 
   150     0008                     PORTD           equ	8	;# 
   151     0009                     PORTE           equ	9	;# 
   152     000A                     PCLATH          equ	10	;# 
   153     000B                     INTCON          equ	11	;# 
   154     000C                     PIR1            equ	12	;# 
   155     000D                     PIR2            equ	13	;# 
   156     000E                     TMR1            equ	14	;# 
   157     000E                     TMR1L           equ	14	;# 
   158     000F                     TMR1H           equ	15	;# 
   159     0010                     T1CON           equ	16	;# 
   160     0011                     TMR2            equ	17	;# 
   161     0012                     T2CON           equ	18	;# 
   162     0013                     SSPBUF          equ	19	;# 
   163     0014                     SSPCON          equ	20	;# 
   164     0015                     CCPR1           equ	21	;# 
   165     0015                     CCPR1L          equ	21	;# 
   166     0016                     CCPR1H          equ	22	;# 
   167     0017                     CCP1CON         equ	23	;# 
   168     0018                     RCSTA           equ	24	;# 
   169     0019                     TXREG           equ	25	;# 
   170     001A                     RCREG           equ	26	;# 
   171     001B                     CCPR2           equ	27	;# 
   172     001B                     CCPR2L          equ	27	;# 
   173     001C                     CCPR2H          equ	28	;# 
   174     001D                     CCP2CON         equ	29	;# 
   175     001E                     ADRESH          equ	30	;# 
   176     001F                     ADCON0          equ	31	;# 
   177     0081                     OPTION_REG      equ	129	;# 
   178     0085                     TRISA           equ	133	;# 
   179     0086                     TRISB           equ	134	;# 
   180     0087                     TRISC           equ	135	;# 
   181     0088                     TRISD           equ	136	;# 
   182     0089                     TRISE           equ	137	;# 
   183     008C                     PIE1            equ	140	;# 
   184     008D                     PIE2            equ	141	;# 
   185     008E                     PCON            equ	142	;# 
   186     008F                     OSCCON          equ	143	;# 
   187     0090                     OSCTUNE         equ	144	;# 
   188     0091                     SSPCON2         equ	145	;# 
   189     0092                     PR2             equ	146	;# 
   190     0093                     SSPADD          equ	147	;# 
   191     0093                     SSPMSK          equ	147	;# 
   192     0093                     MSK             equ	147	;# 
   193     0094                     SSPSTAT         equ	148	;# 
   194     0095                     WPUB            equ	149	;# 
   195     0096                     IOCB            equ	150	;# 
   196     0097                     VRCON           equ	151	;# 
   197     0098                     TXSTA           equ	152	;# 
   198     0099                     SPBRG           equ	153	;# 
   199     009A                     SPBRGH          equ	154	;# 
   200     009B                     PWM1CON         equ	155	;# 
   201     009C                     ECCPAS          equ	156	;# 
   202     009D                     PSTRCON         equ	157	;# 
   203     009E                     ADRESL          equ	158	;# 
   204     009F                     ADCON1          equ	159	;# 
   205     0105                     WDTCON          equ	261	;# 
   206     0107                     CM1CON0         equ	263	;# 
   207     0108                     CM2CON0         equ	264	;# 
   208     0109                     CM2CON1         equ	265	;# 
   209     010C                     EEDATA          equ	268	;# 
   210     010C                     EEDAT           equ	268	;# 
   211     010D                     EEADR           equ	269	;# 
   212     010E                     EEDATH          equ	270	;# 
   213     010F                     EEADRH          equ	271	;# 
   214     0185                     SRCON           equ	389	;# 
   215     0187                     BAUDCTL         equ	391	;# 
   216     0188                     ANSEL           equ	392	;# 
   217     0189                     ANSELH          equ	393	;# 
   218     018C                     EECON1          equ	396	;# 
   219     018D                     EECON2          equ	397	;# 
   220                           
   221                           	psect	nvBANK1
   222     00B0                     __pnvBANK1:
   223     00B0                     _calculated_overflow_counts:
   224     00B0                     	ds	4
   225     0001                     _TMR0           set	1
   226     000B                     _INTCON         set	11
   227     0015                     _CCPR1L         set	21
   228     0012                     _T2CON          set	18
   229     0017                     _CCP1CON        set	23
   230     0092                     _TMR2ON         set	146
   231     00BD                     _DC1B1          set	189
   232     00BC                     _DC1B0          set	188
   233     0092                     _PR2            set	146
   234     0087                     _TRISC          set	135
   235     0081                     _OPTION_REG     set	129
   236     0189                     _ANSELH         set	393
   237     0188                     _ANSEL          set	392
   238                           
   239                           	psect	cinit
   240     000F                     start_initialization:	
   241                           ; #config settings
   242                           
   243     000F                     __initialization:
   244                           
   245                           ; Clear objects allocated to COMMON
   246     000F  01FA               	clrf	__pbssCOMMON& (0+127)
   247     0010  01FB               	clrf	(__pbssCOMMON+1)& (0+127)
   248                           
   249                           ; Clear objects allocated to BANK1
   250     0011  1683               	bsf	3,5	;RP0=1, select bank1
   251     0012  1303               	bcf	3,6	;RP1=0, select bank1
   252     0013  01B4               	clrf	__pbssBANK1& (0+127)
   253     0014  01B5               	clrf	(__pbssBANK1+1)& (0+127)
   254     0015  01B6               	clrf	(__pbssBANK1+2)& (0+127)
   255     0016  01B7               	clrf	(__pbssBANK1+3)& (0+127)
   256     0017                     end_of_initialization:	
   257                           ;End of C runtime variable initialization code
   258                           
   259     0017                     __end_of__initialization:
   260     0017  0183               	clrf	3
   261     0018  120A  158A  2F95   	ljmp	_main	;jump to C main() function
   262                           
   263                           	psect	bssCOMMON
   264     007A                     __pbssCOMMON:
   265     007A                     _pwm_val:
   266     007A                     	ds	2
   267                           
   268                           	psect	bssBANK1
   269     00B4                     __pbssBANK1:
   270     00B4                     _overflow_counts:
   271     00B4                     	ds	4
   272                           
   273                           	psect	cstackBANK1
   274     00A0                     __pcstackBANK1:
   275     00A0                     my_delay_ms@clk_period:
   276                           
   277                           ; 4 bytes @ 0x0
   278     00A0                     	ds	4
   279     00A4                     my_delay_ms@user_period:
   280                           
   281                           ; 4 bytes @ 0x4
   282     00A4                     	ds	4
   283     00A8                     my_delay_ms@no_of_counts:
   284                           
   285                           ; 4 bytes @ 0x8
   286     00A8                     	ds	4
   287     00AC                     _my_delay_ms$661:
   288                           
   289                           ; 4 bytes @ 0xC
   290     00AC                     	ds	4
   291                           
   292                           	psect	cstackCOMMON
   293     0070                     __pcstackCOMMON:
   294     0070                     ?_ISR:
   295     0070                     ?_main:	
   296                           ; 1 bytes @ 0x0
   297                           
   298     0070                     ??_ISR:	
   299                           ; 2 bytes @ 0x0
   300                           
   301                           
   302                           ; 1 bytes @ 0x0
   303     0070                     	ds	2
   304     0072                     ?__Umul8_16:
   305     0072                     ?___xxtofl:	
   306                           ; 2 bytes @ 0x2
   307                           
   308     0072                     __Umul8_16@multiplicand:	
   309                           ; 4 bytes @ 0x2
   310                           
   311     0072                     ___xxtofl@val:	
   312                           ; 1 bytes @ 0x2
   313                           
   314                           
   315                           ; 4 bytes @ 0x2
   316     0072                     	ds	2
   317     0074                     ??__Umul8_16:
   318                           
   319                           ; 1 bytes @ 0x4
   320     0074                     	ds	2
   321     0076                     ??___xxtofl:
   322                           
   323                           ; 1 bytes @ 0x6
   324     0076                     	ds	4
   325                           
   326                           	psect	cstackBANK0
   327     0020                     __pcstackBANK0:
   328     0020                     ___xxtofl@sign:
   329     0020                     __Umul8_16@product:	
   330                           ; 1 bytes @ 0x0
   331                           
   332                           
   333                           ; 2 bytes @ 0x0
   334     0020                     	ds	1
   335     0021                     ___xxtofl@exp:
   336                           
   337                           ; 1 bytes @ 0x1
   338     0021                     	ds	1
   339     0022                     __Umul8_16@word_mpld:
   340     0022                     ___xxtofl@arg:	
   341                           ; 2 bytes @ 0x2
   342                           
   343                           
   344                           ; 4 bytes @ 0x2
   345     0022                     	ds	2
   346     0024                     __Umul8_16@multiplier:
   347                           
   348                           ; 1 bytes @ 0x4
   349     0024                     	ds	1
   350     0025                     ?___flmul:
   351     0025                     ___flmul@b:	
   352                           ; 4 bytes @ 0x5
   353                           
   354                           
   355                           ; 4 bytes @ 0x5
   356     0025                     	ds	4
   357     0029                     ___flmul@a:
   358                           
   359                           ; 4 bytes @ 0x9
   360     0029                     	ds	4
   361     002D                     ??___flmul:
   362                           
   363                           ; 1 bytes @ 0xD
   364     002D                     	ds	5
   365     0032                     ___flmul@sign:
   366                           
   367                           ; 1 bytes @ 0x12
   368     0032                     	ds	1
   369     0033                     ___flmul@aexp:
   370                           
   371                           ; 1 bytes @ 0x13
   372     0033                     	ds	1
   373     0034                     ___flmul@grs:
   374                           
   375                           ; 4 bytes @ 0x14
   376     0034                     	ds	4
   377     0038                     ___flmul@bexp:
   378                           
   379                           ; 1 bytes @ 0x18
   380     0038                     	ds	1
   381     0039                     ___flmul@prod:
   382                           
   383                           ; 4 bytes @ 0x19
   384     0039                     	ds	4
   385     003D                     ___flmul@temp:
   386                           
   387                           ; 2 bytes @ 0x1D
   388     003D                     	ds	2
   389     003F                     ?___fldiv:
   390     003F                     ___fldiv@a:	
   391                           ; 4 bytes @ 0x1F
   392                           
   393                           
   394                           ; 4 bytes @ 0x1F
   395     003F                     	ds	4
   396     0043                     ___fldiv@b:
   397                           
   398                           ; 4 bytes @ 0x23
   399     0043                     	ds	4
   400     0047                     ??___fldiv:
   401                           
   402                           ; 1 bytes @ 0x27
   403     0047                     	ds	5
   404     004C                     ___fldiv@rem:
   405                           
   406                           ; 4 bytes @ 0x2C
   407     004C                     	ds	4
   408     0050                     ___fldiv@sign:
   409                           
   410                           ; 1 bytes @ 0x30
   411     0050                     	ds	1
   412     0051                     ___fldiv@new_exp:
   413                           
   414                           ; 2 bytes @ 0x31
   415     0051                     	ds	2
   416     0053                     ___fldiv@grs:
   417                           
   418                           ; 4 bytes @ 0x33
   419     0053                     	ds	4
   420     0057                     ___fldiv@bexp:
   421                           
   422                           ; 1 bytes @ 0x37
   423     0057                     	ds	1
   424     0058                     ___fldiv@aexp:
   425                           
   426                           ; 1 bytes @ 0x38
   427     0058                     	ds	1
   428     0059                     ?___fltol:
   429     0059                     ___fltol@f1:	
   430                           ; 4 bytes @ 0x39
   431                           
   432                           
   433                           ; 4 bytes @ 0x39
   434     0059                     	ds	4
   435     005D                     ??___fltol:
   436                           
   437                           ; 1 bytes @ 0x3D
   438     005D                     	ds	4
   439     0061                     ___fltol@sign1:
   440                           
   441                           ; 1 bytes @ 0x41
   442     0061                     	ds	1
   443     0062                     ___fltol@exp1:
   444                           
   445                           ; 1 bytes @ 0x42
   446     0062                     	ds	1
   447     0063                     ?_my_delay_ms:
   448     0063                     my_delay_ms@m_s:	
   449                           ; 1 bytes @ 0x43
   450                           
   451                           
   452                           ; 2 bytes @ 0x43
   453     0063                     	ds	2
   454     0065                     ??_my_delay_ms:
   455                           
   456                           ; 1 bytes @ 0x45
   457     0065                     	ds	4
   458     0069                     ??_main:
   459                           
   460                           ; 1 bytes @ 0x49
   461     0069                     	ds	2
   462                           
   463                           	psect	maintext
   464     0F95                     __pmaintext:	
   465 ;;
   466 ;;Main: autosize = 0, tempsize = 2, incstack = 0, save=0
   467 ;;
   468 ;; *************** function _main *****************
   469 ;; Defined at:
   470 ;;		line 19 in file "main.c"
   471 ;; Parameters:    Size  Location     Type
   472 ;;		None
   473 ;; Auto vars:     Size  Location     Type
   474 ;;		None
   475 ;; Return value:  Size  Location     Type
   476 ;;                  2   38[None  ] int 
   477 ;; Registers used:
   478 ;;		wreg, status,2, status,0, btemp+1, pclath, cstack
   479 ;; Tracked objects:
   480 ;;		On entry : B00/0
   481 ;;		On exit  : 0/0
   482 ;;		Unchanged: 0/0
   483 ;; Data sizes:     COMMON   BANK0   BANK1   BANK3   BANK2
   484 ;;      Params:         0       0       0       0       0
   485 ;;      Locals:         0       0       0       0       0
   486 ;;      Temps:          0       2       0       0       0
   487 ;;      Totals:         0       2       0       0       0
   488 ;;Total ram usage:        2 bytes
   489 ;; Hardware stack levels required when called: 4
   490 ;; This function calls:
   491 ;;		_my_delay_ms
   492 ;; This function is called by:
   493 ;;		Startup code after reset
   494 ;; This function uses a non-reentrant model
   495 ;;
   496                           
   497     0F95                     _main:	
   498                           ;psect for function _main
   499                           
   500     0F95                     l1656:	
   501                           ;incstack = 0
   502                           ; Regs used in _main: [wreg+status,2+status,0+btemp+1+pclath+cstack]
   503                           
   504                           
   505                           ;main.c: 21:     OPTION_REG = 0x84;
   506     0F95  3084               	movlw	132
   507     0F96  1683               	bsf	3,5	;RP0=1, select bank1
   508     0F97  1303               	bcf	3,6	;RP1=0, select bank1
   509     0F98  0081               	movwf	1	;volatile
   510     0F99                     l1658:
   511                           
   512                           ;main.c: 22:     OPTION_REG |= (1 << 2) | (1 << 0);
   513     0F99  3005               	movlw	5
   514     0F9A  0481               	iorwf	1,f	;volatile
   515     0F9B                     l1660:
   516                           
   517                           ;main.c: 23:     ANSEL = 0;
   518     0F9B  1683               	bsf	3,5	;RP0=1, select bank3
   519     0F9C  1703               	bsf	3,6	;RP1=1, select bank3
   520     0F9D  0188               	clrf	8	;volatile
   521     0F9E                     l1662:
   522                           
   523                           ;main.c: 24:     ANSELH = 0;
   524     0F9E  0189               	clrf	9	;volatile
   525     0F9F                     l1664:
   526                           
   527                           ;main.c: 25:     CCP1CON = 0x0F;
   528     0F9F  300F               	movlw	15
   529     0FA0  1283               	bcf	3,5	;RP0=0, select bank0
   530     0FA1  1303               	bcf	3,6	;RP1=0, select bank0
   531     0FA2  0097               	movwf	23	;volatile
   532     0FA3                     l1666:
   533                           
   534                           ;main.c: 26:     TRISC = 0x00;
   535     0FA3  1683               	bsf	3,5	;RP0=1, select bank1
   536     0FA4  1303               	bcf	3,6	;RP1=0, select bank1
   537     0FA5  0187               	clrf	7	;volatile
   538     0FA6                     l1668:
   539                           
   540                           ;main.c: 27:     PR2 = 124;
   541     0FA6  307C               	movlw	124
   542     0FA7  0092               	movwf	18	;volatile
   543     0FA8                     l1670:
   544                           
   545                           ;main.c: 28:     T2CON |= (1 << 0);
   546     0FA8  1283               	bcf	3,5	;RP0=0, select bank0
   547     0FA9  1303               	bcf	3,6	;RP1=0, select bank0
   548     0FAA  1412               	bsf	18,0	;volatile
   549     0FAB                     l1672:
   550                           
   551                           ;main.c: 29:     DC1B0 = 0;
   552     0FAB  1217               	bcf	23,4	;volatile
   553     0FAC                     l1674:
   554                           
   555                           ;main.c: 30:     DC1B1 = 0;
   556     0FAC  1297               	bcf	23,5	;volatile
   557     0FAD                     l1676:
   558                           
   559                           ;main.c: 31:     CCPR1L = 0;
   560     0FAD  0195               	clrf	21	;volatile
   561     0FAE                     l1678:
   562                           
   563                           ;main.c: 32:     TMR2ON = 1;
   564     0FAE  1512               	bsf	18,2	;volatile
   565     0FAF                     l1680:
   566                           
   567                           ;main.c: 33:     INTCON = 0xA0;
   568     0FAF  30A0               	movlw	160
   569     0FB0  008B               	movwf	11	;volatile
   570     0FB1                     l1682:
   571                           
   572                           ;main.c: 36:         my_delay_ms(5000);
   573     0FB1  3088               	movlw	136
   574     0FB2  00E3               	movwf	my_delay_ms@m_s
   575     0FB3  3013               	movlw	19
   576     0FB4  00E4               	movwf	my_delay_ms@m_s+1
   577     0FB5  120A  118A  2527  120A  158A  	fcall	_my_delay_ms
   578     0FBA                     l1684:
   579                           
   580                           ;main.c: 37:         if (pwm_val < 500)
   581     0FBA  3001               	movlw	1
   582     0FBB  027B               	subwf	_pwm_val+1,w
   583     0FBC  30F4               	movlw	244
   584     0FBD  1903               	skipnz
   585     0FBE  027A               	subwf	_pwm_val,w
   586     0FBF  1803               	skipnc
   587     0FC0  2FC2               	goto	u2451
   588     0FC1  2FC3               	goto	u2450
   589     0FC2                     u2451:
   590     0FC2  2FCA               	goto	l1688
   591     0FC3                     u2450:
   592     0FC3                     l1686:
   593                           
   594                           ;main.c: 38:             pwm_val += 100;
   595     0FC3  3064               	movlw	100
   596     0FC4  07FA               	addwf	_pwm_val,f
   597     0FC5  1803               	skipnc
   598     0FC6  0AFB               	incf	_pwm_val+1,f
   599     0FC7  3000               	movlw	0
   600     0FC8  07FB               	addwf	_pwm_val+1,f
   601     0FC9  2FD5               	goto	l1692
   602     0FCA                     l1688:
   603     0FCA  30F4               	movlw	244
   604     0FCB  067A               	xorwf	_pwm_val,w
   605     0FCC  1D03               	skipz
   606     0FCD  2FD2               	goto	u2461
   607     0FCE  037B               	decf	_pwm_val+1,w
   608     0FCF  1D03               	btfss	3,2
   609     0FD0  2FD2               	goto	u2461
   610     0FD1  2FD3               	goto	u2460
   611     0FD2                     u2461:
   612     0FD2  2FD5               	goto	l1692
   613     0FD3                     u2460:
   614     0FD3                     l1690:
   615                           
   616                           ;main.c: 40:             pwm_val = 0;
   617     0FD3  01FA               	clrf	_pwm_val
   618     0FD4  01FB               	clrf	_pwm_val+1
   619     0FD5                     l1692:
   620                           
   621                           ;main.c: 41:         DC1B0 = (pwm_val & (1 << 0)) >> 0;
   622     0FD5  187A               	btfsc	_pwm_val,0
   623     0FD6  2FD8               	goto	u2471
   624     0FD7  2FDC               	goto	u2470
   625     0FD8                     u2471:
   626     0FD8  1283               	bcf	3,5	;RP0=0, select bank0
   627     0FD9  1303               	bcf	3,6	;RP1=0, select bank0
   628     0FDA  1617               	bsf	23,4	;volatile
   629     0FDB  2FDF               	goto	u2484
   630     0FDC                     u2470:
   631     0FDC  1283               	bcf	3,5	;RP0=0, select bank0
   632     0FDD  1303               	bcf	3,6	;RP1=0, select bank0
   633     0FDE  1217               	bcf	23,4	;volatile
   634     0FDF                     u2484:
   635     0FDF                     l1694:
   636                           
   637                           ;main.c: 42:         DC1B1 = (pwm_val & (1 << 1)) >> 1;
   638     0FDF  087B               	movf	_pwm_val+1,w
   639     0FE0  00EA               	movwf	??_main+1
   640     0FE1  087A               	movf	_pwm_val,w
   641     0FE2  00E9               	movwf	??_main
   642     0FE3  1003               	clrc
   643     0FE4  0CEA               	rrf	??_main+1,f
   644     0FE5  0CE9               	rrf	??_main,f
   645     0FE6  1869               	btfsc	??_main,0
   646     0FE7  2FE9               	goto	u2491
   647     0FE8  2FED               	goto	u2490
   648     0FE9                     u2491:
   649     0FE9  1283               	bcf	3,5	;RP0=0, select bank0
   650     0FEA  1303               	bcf	3,6	;RP1=0, select bank0
   651     0FEB  1697               	bsf	23,5	;volatile
   652     0FEC  2FF0               	goto	u2504
   653     0FED                     u2490:
   654     0FED  1283               	bcf	3,5	;RP0=0, select bank0
   655     0FEE  1303               	bcf	3,6	;RP1=0, select bank0
   656     0FEF  1297               	bcf	23,5	;volatile
   657     0FF0                     u2504:
   658     0FF0                     l1696:
   659                           
   660                           ;main.c: 43:         CCPR1L = pwm_val >> 2;
   661     0FF0  087B               	movf	_pwm_val+1,w
   662     0FF1  00EA               	movwf	??_main+1
   663     0FF2  087A               	movf	_pwm_val,w
   664     0FF3  00E9               	movwf	??_main
   665     0FF4  1003               	clrc
   666     0FF5  0CEA               	rrf	??_main+1,f
   667     0FF6  0CE9               	rrf	??_main,f
   668     0FF7  1003               	clrc
   669     0FF8  0CEA               	rrf	??_main+1,f
   670     0FF9  0CE9               	rrf	??_main,f
   671     0FFA  0869               	movf	??_main,w
   672     0FFB  0095               	movwf	21	;volatile
   673     0FFC  2FB1               	goto	l1682
   674     0FFD  120A  118A  280C   	ljmp	start
   675     1000                     __end_of_main:
   676                           
   677                           	psect	text1
   678     0527                     __ptext1:	
   679 ;; *************** function _my_delay_ms *****************
   680 ;; Defined at:
   681 ;;		line 54 in file "main.c"
   682 ;; Parameters:    Size  Location     Type
   683 ;;  m_s             2   67[BANK0 ] unsigned int 
   684 ;; Auto vars:     Size  Location     Type
   685 ;;  no_of_counts    4    8[BANK1 ] unsigned long 
   686 ;;  user_period     4    4[BANK1 ] unsigned long 
   687 ;;  clk_period      4    0[BANK1 ] unsigned long 
   688 ;; Return value:  Size  Location     Type
   689 ;;                  1    wreg      void 
   690 ;; Registers used:
   691 ;;		wreg, status,2, status,0, btemp+1, pclath, cstack
   692 ;; Tracked objects:
   693 ;;		On entry : 0/0
   694 ;;		On exit  : 0/0
   695 ;;		Unchanged: 0/0
   696 ;; Data sizes:     COMMON   BANK0   BANK1   BANK3   BANK2
   697 ;;      Params:         0       2       0       0       0
   698 ;;      Locals:         0       0      16       0       0
   699 ;;      Temps:          0       4       0       0       0
   700 ;;      Totals:         0       6      16       0       0
   701 ;;Total ram usage:       22 bytes
   702 ;; Hardware stack levels used: 1
   703 ;; Hardware stack levels required when called: 3
   704 ;; This function calls:
   705 ;;		___fldiv
   706 ;;		___flmul
   707 ;;		___fltol
   708 ;;		___xxtofl
   709 ;; This function is called by:
   710 ;;		_main
   711 ;; This function uses a non-reentrant model
   712 ;;
   713                           
   714     0527                     _my_delay_ms:	
   715                           ;psect for function _my_delay_ms
   716                           
   717     0527                     l1640:	
   718                           ;incstack = 0
   719                           ; Regs used in _my_delay_ms: [wreg+status,2+status,0+btemp+1+pclath+cstack]
   720                           
   721                           
   722                           ;main.c: 54: void my_delay_ms(unsigned int m_s);main.c: 55: {;main.c: 56:     double clk
      +                          _period = (1 / (4.0 * 1000000.0));
   723     0527  3034               	movlw	52
   724     0528  1683               	bsf	3,5	;RP0=1, select bank1
   725     0529  1303               	bcf	3,6	;RP1=0, select bank1
   726     052A  00A3               	movwf	(my_delay_ms@clk_period+3)^(0+128)
   727     052B  3086               	movlw	134
   728     052C  00A2               	movwf	(my_delay_ms@clk_period+2)^(0+128)
   729     052D  3037               	movlw	55
   730     052E  00A1               	movwf	(my_delay_ms@clk_period+1)^(0+128)
   731     052F  30BD               	movlw	189
   732     0530  00A0               	movwf	my_delay_ms@clk_period^(0+128)
   733     0531                     l1642:
   734                           
   735                           ;main.c: 57:     double user_period = m_s / (1000.0);
   736     0531  3044               	movlw	68
   737     0532  1283               	bcf	3,5	;RP0=0, select bank0
   738     0533  1303               	bcf	3,6	;RP1=0, select bank0
   739     0534  00C2               	movwf	___fldiv@a+3
   740     0535  307A               	movlw	122
   741     0536  00C1               	movwf	___fldiv@a+2
   742     0537  3000               	movlw	0
   743     0538  00C0               	movwf	___fldiv@a+1
   744     0539  3000               	movlw	0
   745     053A  00BF               	movwf	___fldiv@a
   746     053B  0863               	movf	my_delay_ms@m_s,w
   747     053C  00F2               	movwf	___xxtofl@val
   748     053D  0864               	movf	my_delay_ms@m_s+1,w
   749     053E  00F3               	movwf	___xxtofl@val+1
   750     053F  01F4               	clrf	___xxtofl@val+2
   751     0540  01F5               	clrf	___xxtofl@val+3
   752     0541  3000               	movlw	0
   753     0542  120A  118A  2677  120A  118A  	fcall	___xxtofl
   754     0547  0875               	movf	?___xxtofl+3,w
   755     0548  1283               	bcf	3,5	;RP0=0, select bank0
   756     0549  1303               	bcf	3,6	;RP1=0, select bank0
   757     054A  00C6               	movwf	___fldiv@b+3
   758     054B  0874               	movf	?___xxtofl+2,w
   759     054C  00C5               	movwf	___fldiv@b+2
   760     054D  0873               	movf	?___xxtofl+1,w
   761     054E  00C4               	movwf	___fldiv@b+1
   762     054F  0872               	movf	?___xxtofl,w
   763     0550  00C3               	movwf	___fldiv@b
   764     0551  120A  118A  235D  120A  118A  	fcall	___fldiv
   765     0556  1283               	bcf	3,5	;RP0=0, select bank0
   766     0557  1303               	bcf	3,6	;RP1=0, select bank0
   767     0558  0842               	movf	?___fldiv+3,w
   768     0559  1683               	bsf	3,5	;RP0=1, select bank1
   769     055A  1303               	bcf	3,6	;RP1=0, select bank1
   770     055B  00A7               	movwf	(my_delay_ms@user_period+3)^(0+128)
   771     055C  1283               	bcf	3,5	;RP0=0, select bank0
   772     055D  1303               	bcf	3,6	;RP1=0, select bank0
   773     055E  0841               	movf	?___fldiv+2,w
   774     055F  1683               	bsf	3,5	;RP0=1, select bank1
   775     0560  1303               	bcf	3,6	;RP1=0, select bank1
   776     0561  00A6               	movwf	(my_delay_ms@user_period+2)^(0+128)
   777     0562  1283               	bcf	3,5	;RP0=0, select bank0
   778     0563  1303               	bcf	3,6	;RP1=0, select bank0
   779     0564  0840               	movf	?___fldiv+1,w
   780     0565  1683               	bsf	3,5	;RP0=1, select bank1
   781     0566  1303               	bcf	3,6	;RP1=0, select bank1
   782     0567  00A5               	movwf	(my_delay_ms@user_period+1)^(0+128)
   783     0568  1283               	bcf	3,5	;RP0=0, select bank0
   784     0569  1303               	bcf	3,6	;RP1=0, select bank0
   785     056A  083F               	movf	?___fldiv,w
   786     056B  1683               	bsf	3,5	;RP0=1, select bank1
   787     056C  1303               	bcf	3,6	;RP1=0, select bank1
   788     056D  00A4               	movwf	my_delay_ms@user_period^(0+128)
   789     056E                     l1644:
   790                           
   791                           ;main.c: 58:     unsigned long no_of_counts = (user_period / (4.0 * clk_period * 64.0));
   792     056E  0823               	movf	(my_delay_ms@clk_period+3)^(0+128),w
   793     056F  1283               	bcf	3,5	;RP0=0, select bank0
   794     0570  1303               	bcf	3,6	;RP1=0, select bank0
   795     0571  00AC               	movwf	___flmul@a+3
   796     0572  1683               	bsf	3,5	;RP0=1, select bank1
   797     0573  1303               	bcf	3,6	;RP1=0, select bank1
   798     0574  0822               	movf	(my_delay_ms@clk_period+2)^(0+128),w
   799     0575  1283               	bcf	3,5	;RP0=0, select bank0
   800     0576  1303               	bcf	3,6	;RP1=0, select bank0
   801     0577  00AB               	movwf	___flmul@a+2
   802     0578  1683               	bsf	3,5	;RP0=1, select bank1
   803     0579  1303               	bcf	3,6	;RP1=0, select bank1
   804     057A  0821               	movf	(my_delay_ms@clk_period+1)^(0+128),w
   805     057B  1283               	bcf	3,5	;RP0=0, select bank0
   806     057C  1303               	bcf	3,6	;RP1=0, select bank0
   807     057D  00AA               	movwf	___flmul@a+1
   808     057E  1683               	bsf	3,5	;RP0=1, select bank1
   809     057F  1303               	bcf	3,6	;RP1=0, select bank1
   810     0580  0820               	movf	my_delay_ms@clk_period^(0+128),w
   811     0581  1283               	bcf	3,5	;RP0=0, select bank0
   812     0582  1303               	bcf	3,6	;RP1=0, select bank0
   813     0583  00A9               	movwf	___flmul@a
   814     0584  3040               	movlw	64
   815     0585  00A8               	movwf	___flmul@b+3
   816     0586  3080               	movlw	128
   817     0587  00A7               	movwf	___flmul@b+2
   818     0588  3000               	movlw	0
   819     0589  00A6               	movwf	___flmul@b+1
   820     058A  3000               	movlw	0
   821     058B  00A5               	movwf	___flmul@b
   822     058C  120A  118A  201B  120A  118A  	fcall	___flmul
   823     0591  1283               	bcf	3,5	;RP0=0, select bank0
   824     0592  1303               	bcf	3,6	;RP1=0, select bank0
   825     0593  0828               	movf	?___flmul+3,w
   826     0594  1683               	bsf	3,5	;RP0=1, select bank1
   827     0595  1303               	bcf	3,6	;RP1=0, select bank1
   828     0596  00AF               	movwf	(_my_delay_ms$661+3)^(0+128)
   829     0597  1283               	bcf	3,5	;RP0=0, select bank0
   830     0598  1303               	bcf	3,6	;RP1=0, select bank0
   831     0599  0827               	movf	?___flmul+2,w
   832     059A  1683               	bsf	3,5	;RP0=1, select bank1
   833     059B  1303               	bcf	3,6	;RP1=0, select bank1
   834     059C  00AE               	movwf	(_my_delay_ms$661+2)^(0+128)
   835     059D  1283               	bcf	3,5	;RP0=0, select bank0
   836     059E  1303               	bcf	3,6	;RP1=0, select bank0
   837     059F  0826               	movf	?___flmul+1,w
   838     05A0  1683               	bsf	3,5	;RP0=1, select bank1
   839     05A1  1303               	bcf	3,6	;RP1=0, select bank1
   840     05A2  00AD               	movwf	(_my_delay_ms$661+1)^(0+128)
   841     05A3  1283               	bcf	3,5	;RP0=0, select bank0
   842     05A4  1303               	bcf	3,6	;RP1=0, select bank0
   843     05A5  0825               	movf	?___flmul,w
   844     05A6  1683               	bsf	3,5	;RP0=1, select bank1
   845     05A7  1303               	bcf	3,6	;RP1=0, select bank1
   846     05A8  00AC               	movwf	_my_delay_ms$661^(0+128)
   847     05A9                     l1646:
   848                           
   849                           ;main.c: 58:     unsigned long no_of_counts = (user_period / (4.0 * clk_period * 64.0));
   850     05A9  0827               	movf	(my_delay_ms@user_period+3)^(0+128),w
   851     05AA  1283               	bcf	3,5	;RP0=0, select bank0
   852     05AB  1303               	bcf	3,6	;RP1=0, select bank0
   853     05AC  00C6               	movwf	___fldiv@b+3
   854     05AD  1683               	bsf	3,5	;RP0=1, select bank1
   855     05AE  1303               	bcf	3,6	;RP1=0, select bank1
   856     05AF  0826               	movf	(my_delay_ms@user_period+2)^(0+128),w
   857     05B0  1283               	bcf	3,5	;RP0=0, select bank0
   858     05B1  1303               	bcf	3,6	;RP1=0, select bank0
   859     05B2  00C5               	movwf	___fldiv@b+2
   860     05B3  1683               	bsf	3,5	;RP0=1, select bank1
   861     05B4  1303               	bcf	3,6	;RP1=0, select bank1
   862     05B5  0825               	movf	(my_delay_ms@user_period+1)^(0+128),w
   863     05B6  1283               	bcf	3,5	;RP0=0, select bank0
   864     05B7  1303               	bcf	3,6	;RP1=0, select bank0
   865     05B8  00C4               	movwf	___fldiv@b+1
   866     05B9  1683               	bsf	3,5	;RP0=1, select bank1
   867     05BA  1303               	bcf	3,6	;RP1=0, select bank1
   868     05BB  0824               	movf	my_delay_ms@user_period^(0+128),w
   869     05BC  1283               	bcf	3,5	;RP0=0, select bank0
   870     05BD  1303               	bcf	3,6	;RP1=0, select bank0
   871     05BE  00C3               	movwf	___fldiv@b
   872     05BF  1683               	bsf	3,5	;RP0=1, select bank1
   873     05C0  1303               	bcf	3,6	;RP1=0, select bank1
   874     05C1  082F               	movf	(_my_delay_ms$661+3)^(0+128),w
   875     05C2  1283               	bcf	3,5	;RP0=0, select bank0
   876     05C3  1303               	bcf	3,6	;RP1=0, select bank0
   877     05C4  00AC               	movwf	___flmul@a+3
   878     05C5  1683               	bsf	3,5	;RP0=1, select bank1
   879     05C6  1303               	bcf	3,6	;RP1=0, select bank1
   880     05C7  082E               	movf	(_my_delay_ms$661+2)^(0+128),w
   881     05C8  1283               	bcf	3,5	;RP0=0, select bank0
   882     05C9  1303               	bcf	3,6	;RP1=0, select bank0
   883     05CA  00AB               	movwf	___flmul@a+2
   884     05CB  1683               	bsf	3,5	;RP0=1, select bank1
   885     05CC  1303               	bcf	3,6	;RP1=0, select bank1
   886     05CD  082D               	movf	(_my_delay_ms$661+1)^(0+128),w
   887     05CE  1283               	bcf	3,5	;RP0=0, select bank0
   888     05CF  1303               	bcf	3,6	;RP1=0, select bank0
   889     05D0  00AA               	movwf	___flmul@a+1
   890     05D1  1683               	bsf	3,5	;RP0=1, select bank1
   891     05D2  1303               	bcf	3,6	;RP1=0, select bank1
   892     05D3  082C               	movf	_my_delay_ms$661^(0+128),w
   893     05D4  1283               	bcf	3,5	;RP0=0, select bank0
   894     05D5  1303               	bcf	3,6	;RP1=0, select bank0
   895     05D6  00A9               	movwf	___flmul@a
   896     05D7  3042               	movlw	66
   897     05D8  00A8               	movwf	___flmul@b+3
   898     05D9  3080               	movlw	128
   899     05DA  00A7               	movwf	___flmul@b+2
   900     05DB  3000               	movlw	0
   901     05DC  00A6               	movwf	___flmul@b+1
   902     05DD  3000               	movlw	0
   903     05DE  00A5               	movwf	___flmul@b
   904     05DF  120A  118A  201B  120A  118A  	fcall	___flmul
   905     05E4  1283               	bcf	3,5	;RP0=0, select bank0
   906     05E5  1303               	bcf	3,6	;RP1=0, select bank0
   907     05E6  0828               	movf	?___flmul+3,w
   908     05E7  00C2               	movwf	___fldiv@a+3
   909     05E8  0827               	movf	?___flmul+2,w
   910     05E9  00C1               	movwf	___fldiv@a+2
   911     05EA  0826               	movf	?___flmul+1,w
   912     05EB  00C0               	movwf	___fldiv@a+1
   913     05EC  0825               	movf	?___flmul,w
   914     05ED  00BF               	movwf	___fldiv@a
   915     05EE  120A  118A  235D  120A  118A  	fcall	___fldiv
   916     05F3  1283               	bcf	3,5	;RP0=0, select bank0
   917     05F4  1303               	bcf	3,6	;RP1=0, select bank0
   918     05F5  0842               	movf	?___fldiv+3,w
   919     05F6  00DC               	movwf	___fltol@f1+3
   920     05F7  0841               	movf	?___fldiv+2,w
   921     05F8  00DB               	movwf	___fltol@f1+2
   922     05F9  0840               	movf	?___fldiv+1,w
   923     05FA  00DA               	movwf	___fltol@f1+1
   924     05FB  083F               	movf	?___fldiv,w
   925     05FC  00D9               	movwf	___fltol@f1
   926     05FD  120A  118A  272D  120A  118A  	fcall	___fltol
   927     0602  1283               	bcf	3,5	;RP0=0, select bank0
   928     0603  1303               	bcf	3,6	;RP1=0, select bank0
   929     0604  085C               	movf	?___fltol+3,w
   930     0605  1683               	bsf	3,5	;RP0=1, select bank1
   931     0606  1303               	bcf	3,6	;RP1=0, select bank1
   932     0607  00AB               	movwf	(my_delay_ms@no_of_counts+3)^(0+128)
   933     0608  1283               	bcf	3,5	;RP0=0, select bank0
   934     0609  1303               	bcf	3,6	;RP1=0, select bank0
   935     060A  085B               	movf	?___fltol+2,w
   936     060B  1683               	bsf	3,5	;RP0=1, select bank1
   937     060C  1303               	bcf	3,6	;RP1=0, select bank1
   938     060D  00AA               	movwf	(my_delay_ms@no_of_counts+2)^(0+128)
   939     060E  1283               	bcf	3,5	;RP0=0, select bank0
   940     060F  1303               	bcf	3,6	;RP1=0, select bank0
   941     0610  085A               	movf	?___fltol+1,w
   942     0611  1683               	bsf	3,5	;RP0=1, select bank1
   943     0612  1303               	bcf	3,6	;RP1=0, select bank1
   944     0613  00A9               	movwf	(my_delay_ms@no_of_counts+1)^(0+128)
   945     0614  1283               	bcf	3,5	;RP0=0, select bank0
   946     0615  1303               	bcf	3,6	;RP1=0, select bank0
   947     0616  0859               	movf	?___fltol,w
   948     0617  1683               	bsf	3,5	;RP0=1, select bank1
   949     0618  1303               	bcf	3,6	;RP1=0, select bank1
   950     0619  00A8               	movwf	my_delay_ms@no_of_counts^(0+128)
   951     061A                     l1648:
   952                           
   953                           ;main.c: 59:     calculated_overflow_counts = no_of_counts / 256;
   954     061A  0828               	movf	my_delay_ms@no_of_counts^(0+128),w
   955     061B  1283               	bcf	3,5	;RP0=0, select bank0
   956     061C  1303               	bcf	3,6	;RP1=0, select bank0
   957     061D  00E5               	movwf	??_my_delay_ms
   958     061E  1683               	bsf	3,5	;RP0=1, select bank1
   959     061F  1303               	bcf	3,6	;RP1=0, select bank1
   960     0620  0829               	movf	(my_delay_ms@no_of_counts+1)^(0+128),w
   961     0621  1283               	bcf	3,5	;RP0=0, select bank0
   962     0622  1303               	bcf	3,6	;RP1=0, select bank0
   963     0623  00E6               	movwf	??_my_delay_ms+1
   964     0624  1683               	bsf	3,5	;RP0=1, select bank1
   965     0625  1303               	bcf	3,6	;RP1=0, select bank1
   966     0626  082A               	movf	(my_delay_ms@no_of_counts+2)^(0+128),w
   967     0627  1283               	bcf	3,5	;RP0=0, select bank0
   968     0628  1303               	bcf	3,6	;RP1=0, select bank0
   969     0629  00E7               	movwf	??_my_delay_ms+2
   970     062A  1683               	bsf	3,5	;RP0=1, select bank1
   971     062B  1303               	bcf	3,6	;RP1=0, select bank1
   972     062C  082B               	movf	(my_delay_ms@no_of_counts+3)^(0+128),w
   973     062D  1283               	bcf	3,5	;RP0=0, select bank0
   974     062E  1303               	bcf	3,6	;RP1=0, select bank0
   975     062F  00E8               	movwf	??_my_delay_ms+3
   976     0630  3008               	movlw	8
   977     0631                     u2435:
   978     0631  1003               	clrc
   979     0632  0CE8               	rrf	??_my_delay_ms+3,f
   980     0633  0CE7               	rrf	??_my_delay_ms+2,f
   981     0634  0CE6               	rrf	??_my_delay_ms+1,f
   982     0635  0CE5               	rrf	??_my_delay_ms,f
   983     0636                     u2430:
   984     0636  3EFF               	addlw	-1
   985     0637  1D03               	skipz
   986     0638  2E31               	goto	u2435
   987     0639  0868               	movf	??_my_delay_ms+3,w
   988     063A  1683               	bsf	3,5	;RP0=1, select bank1
   989     063B  1303               	bcf	3,6	;RP1=0, select bank1
   990     063C  00B3               	movwf	(_calculated_overflow_counts+3)^(0+128)
   991     063D  1283               	bcf	3,5	;RP0=0, select bank0
   992     063E  1303               	bcf	3,6	;RP1=0, select bank0
   993     063F  0867               	movf	??_my_delay_ms+2,w
   994     0640  1683               	bsf	3,5	;RP0=1, select bank1
   995     0641  1303               	bcf	3,6	;RP1=0, select bank1
   996     0642  00B2               	movwf	(_calculated_overflow_counts+2)^(0+128)
   997     0643  1283               	bcf	3,5	;RP0=0, select bank0
   998     0644  1303               	bcf	3,6	;RP1=0, select bank0
   999     0645  0866               	movf	??_my_delay_ms+1,w
  1000     0646  1683               	bsf	3,5	;RP0=1, select bank1
  1001     0647  1303               	bcf	3,6	;RP1=0, select bank1
  1002     0648  00B1               	movwf	(_calculated_overflow_counts+1)^(0+128)
  1003     0649  1283               	bcf	3,5	;RP0=0, select bank0
  1004     064A  1303               	bcf	3,6	;RP1=0, select bank0
  1005     064B  0865               	movf	??_my_delay_ms,w
  1006     064C  1683               	bsf	3,5	;RP0=1, select bank1
  1007     064D  1303               	bcf	3,6	;RP1=0, select bank1
  1008     064E  00B0               	movwf	_calculated_overflow_counts^(0+128)
  1009     064F                     l1650:
  1010                           
  1011                           ;main.c: 60:     TMR0 = 0;
  1012     064F  1283               	bcf	3,5	;RP0=0, select bank0
  1013     0650  1303               	bcf	3,6	;RP1=0, select bank0
  1014     0651  0181               	clrf	1	;volatile
  1015     0652                     l1652:	
  1016                           ;main.c: 61:     while(overflow_counts != calculated_overflow_counts);
  1017                           
  1018     0652  1683               	bsf	3,5	;RP0=1, select bank1
  1019     0653  1303               	bcf	3,6	;RP1=0, select bank1
  1020     0654  0833               	movf	(_calculated_overflow_counts+3)^(0+128),w
  1021     0655  0637               	xorwf	(_overflow_counts+3)^(0+128),w
  1022     0656  1D03               	skipz
  1023     0657  2E62               	goto	u2445
  1024     0658  0832               	movf	(_calculated_overflow_counts+2)^(0+128),w
  1025     0659  0636               	xorwf	(_overflow_counts+2)^(0+128),w
  1026     065A  1D03               	skipz
  1027     065B  2E62               	goto	u2445
  1028     065C  0831               	movf	(_calculated_overflow_counts+1)^(0+128),w
  1029     065D  0635               	xorwf	(_overflow_counts+1)^(0+128),w
  1030     065E  1D03               	skipz
  1031     065F  2E62               	goto	u2445
  1032     0660  0830               	movf	_calculated_overflow_counts^(0+128),w
  1033     0661  0634               	xorwf	_overflow_counts^(0+128),w
  1034     0662                     u2445:
  1035     0662  1D03               	skipz
  1036     0663  2E65               	goto	u2441
  1037     0664  2E66               	goto	u2440
  1038     0665                     u2441:
  1039     0665  2E52               	goto	l1652
  1040     0666                     u2440:
  1041     0666                     l1654:
  1042                           
  1043                           ;main.c: 62:     overflow_counts = 0;
  1044     0666  3000               	movlw	0
  1045     0667  00B7               	movwf	(_overflow_counts+3)^(0+128)
  1046     0668  3000               	movlw	0
  1047     0669  00B6               	movwf	(_overflow_counts+2)^(0+128)
  1048     066A  3000               	movlw	0
  1049     066B  00B5               	movwf	(_overflow_counts+1)^(0+128)
  1050     066C  3000               	movlw	0
  1051     066D  00B4               	movwf	_overflow_counts^(0+128)
  1052                           
  1053                           ;main.c: 63:     calculated_overflow_counts = 0;
  1054     066E  3000               	movlw	0
  1055     066F  00B3               	movwf	(_calculated_overflow_counts+3)^(0+128)
  1056     0670  3000               	movlw	0
  1057     0671  00B2               	movwf	(_calculated_overflow_counts+2)^(0+128)
  1058     0672  3000               	movlw	0
  1059     0673  00B1               	movwf	(_calculated_overflow_counts+1)^(0+128)
  1060     0674  3000               	movlw	0
  1061     0675  00B0               	movwf	_calculated_overflow_counts^(0+128)
  1062     0676                     l56:
  1063     0676  0008               	return
  1064     0677                     __end_of_my_delay_ms:
  1065                           
  1066                           	psect	text2
  1067     0677                     __ptext2:	
  1068 ;; *************** function ___xxtofl *****************
  1069 ;; Defined at:
  1070 ;;		line 10 in file "/Applications/microchip/xc8/v3.00/pic/sources/c99/common/xxtofl.c"
  1071 ;; Parameters:    Size  Location     Type
  1072 ;;  sign            1    wreg     unsigned char 
  1073 ;;  val             4    2[COMMON] long 
  1074 ;; Auto vars:     Size  Location     Type
  1075 ;;  sign            1    0[BANK0 ] unsigned char 
  1076 ;;  arg             4    2[BANK0 ] unsigned long 
  1077 ;;  exp             1    1[BANK0 ] unsigned char 
  1078 ;; Return value:  Size  Location     Type
  1079 ;;                  4    2[COMMON] unsigned char 
  1080 ;; Registers used:
  1081 ;;		wreg, status,2, status,0
  1082 ;; Tracked objects:
  1083 ;;		On entry : 0/0
  1084 ;;		On exit  : 0/0
  1085 ;;		Unchanged: 0/0
  1086 ;; Data sizes:     COMMON   BANK0   BANK1   BANK3   BANK2
  1087 ;;      Params:         4       0       0       0       0
  1088 ;;      Locals:         0       6       0       0       0
  1089 ;;      Temps:          4       0       0       0       0
  1090 ;;      Totals:         8       6       0       0       0
  1091 ;;Total ram usage:       14 bytes
  1092 ;; Hardware stack levels used: 1
  1093 ;; Hardware stack levels required when called: 1
  1094 ;; This function calls:
  1095 ;;		Nothing
  1096 ;; This function is called by:
  1097 ;;		_my_delay_ms
  1098 ;; This function uses a non-reentrant model
  1099 ;;
  1100                           
  1101     0677                     ___xxtofl:	
  1102                           ;psect for function ___xxtofl
  1103                           
  1104                           
  1105                           ;incstack = 0
  1106                           ; Regs used in ___xxtofl: [wreg+status,2+status,0]
  1107                           ;___xxtofl@sign stored from wreg
  1108     0677  1283               	bcf	3,5	;RP0=0, select bank0
  1109     0678  1303               	bcf	3,6	;RP1=0, select bank0
  1110     0679  00A0               	movwf	___xxtofl@sign
  1111     067A                     l1378:
  1112     067A  0820               	movf	___xxtofl@sign,w
  1113     067B  1903               	btfsc	3,2
  1114     067C  2E7E               	goto	u1811
  1115     067D  2E7F               	goto	u1810
  1116     067E                     u1811:
  1117     067E  2E93               	goto	l1384
  1118     067F                     u1810:
  1119     067F                     l1380:
  1120     067F  1FF5               	btfss	___xxtofl@val+3,7
  1121     0680  2E82               	goto	u1821
  1122     0681  2E83               	goto	u1820
  1123     0682                     u1821:
  1124     0682  2E93               	goto	l1384
  1125     0683                     u1820:
  1126     0683                     l1382:
  1127     0683  0972               	comf	___xxtofl@val,w
  1128     0684  00A2               	movwf	___xxtofl@arg
  1129     0685  0973               	comf	___xxtofl@val+1,w
  1130     0686  00A3               	movwf	___xxtofl@arg+1
  1131     0687  0974               	comf	___xxtofl@val+2,w
  1132     0688  00A4               	movwf	___xxtofl@arg+2
  1133     0689  0975               	comf	___xxtofl@val+3,w
  1134     068A  00A5               	movwf	___xxtofl@arg+3
  1135     068B  0AA2               	incf	___xxtofl@arg,f
  1136     068C  1903               	skipnz
  1137     068D  0AA3               	incf	___xxtofl@arg+1,f
  1138     068E  1903               	skipnz
  1139     068F  0AA4               	incf	___xxtofl@arg+2,f
  1140     0690  1903               	skipnz
  1141     0691  0AA5               	incf	___xxtofl@arg+3,f
  1142     0692  2E9B               	goto	l583
  1143     0693                     l1384:
  1144     0693  0875               	movf	___xxtofl@val+3,w
  1145     0694  00A5               	movwf	___xxtofl@arg+3
  1146     0695  0874               	movf	___xxtofl@val+2,w
  1147     0696  00A4               	movwf	___xxtofl@arg+2
  1148     0697  0873               	movf	___xxtofl@val+1,w
  1149     0698  00A3               	movwf	___xxtofl@arg+1
  1150     0699  0872               	movf	___xxtofl@val,w
  1151     069A  00A2               	movwf	___xxtofl@arg
  1152     069B                     l583:
  1153     069B  0875               	movf	___xxtofl@val+3,w
  1154     069C  0474               	iorwf	___xxtofl@val+2,w
  1155     069D  0473               	iorwf	___xxtofl@val+1,w
  1156     069E  0472               	iorwf	___xxtofl@val,w
  1157     069F  1D03               	skipz
  1158     06A0  2EA2               	goto	u1831
  1159     06A1  2EA3               	goto	u1830
  1160     06A2                     u1831:
  1161     06A2  2EAC               	goto	l584
  1162     06A3                     u1830:
  1163     06A3                     l1386:
  1164     06A3  3000               	movlw	0
  1165     06A4  00F5               	movwf	?___xxtofl+3
  1166     06A5  3000               	movlw	0
  1167     06A6  00F4               	movwf	?___xxtofl+2
  1168     06A7  3000               	movlw	0
  1169     06A8  00F3               	movwf	?___xxtofl+1
  1170     06A9  3000               	movlw	0
  1171     06AA  00F2               	movwf	?___xxtofl
  1172     06AB  2F2C               	goto	l585
  1173     06AC                     l584:
  1174     06AC  3096               	movlw	150
  1175     06AD  00A1               	movwf	___xxtofl@exp
  1176     06AE  2EBA               	goto	l1392
  1177     06AF                     l1390:
  1178     06AF  3001               	movlw	1
  1179     06B0  07A1               	addwf	___xxtofl@exp,f
  1180     06B1  3001               	movlw	1
  1181     06B2                     u1845:
  1182     06B2  1003               	clrc
  1183     06B3  0CA5               	rrf	___xxtofl@arg+3,f
  1184     06B4  0CA4               	rrf	___xxtofl@arg+2,f
  1185     06B5  0CA3               	rrf	___xxtofl@arg+1,f
  1186     06B6  0CA2               	rrf	___xxtofl@arg,f
  1187     06B7  3EFF               	addlw	-1
  1188     06B8  1D03               	skipz
  1189     06B9  2EB2               	goto	u1845
  1190     06BA                     l1392:
  1191     06BA  30FE               	movlw	254
  1192     06BB  0525               	andwf	___xxtofl@arg+3,w
  1193     06BC  1D03               	btfss	3,2
  1194     06BD  2EBF               	goto	u1851
  1195     06BE  2EC0               	goto	u1850
  1196     06BF                     u1851:
  1197     06BF  2EAF               	goto	l1390
  1198     06C0                     u1850:
  1199     06C0  2EDA               	goto	l589
  1200     06C1                     l1394:
  1201     06C1  3001               	movlw	1
  1202     06C2  07A1               	addwf	___xxtofl@exp,f
  1203     06C3                     l1396:
  1204     06C3  3001               	movlw	1
  1205     06C4  07A2               	addwf	___xxtofl@arg,f
  1206     06C5  3000               	movlw	0
  1207     06C6  1803               	skipnc
  1208     06C7  3001               	movlw	1
  1209     06C8  07A3               	addwf	___xxtofl@arg+1,f
  1210     06C9  3000               	movlw	0
  1211     06CA  1803               	skipnc
  1212     06CB  3001               	movlw	1
  1213     06CC  07A4               	addwf	___xxtofl@arg+2,f
  1214     06CD  3000               	movlw	0
  1215     06CE  1803               	skipnc
  1216     06CF  3001               	movlw	1
  1217     06D0  07A5               	addwf	___xxtofl@arg+3,f
  1218     06D1                     l1398:
  1219     06D1  3001               	movlw	1
  1220     06D2                     u1865:
  1221     06D2  1003               	clrc
  1222     06D3  0CA5               	rrf	___xxtofl@arg+3,f
  1223     06D4  0CA4               	rrf	___xxtofl@arg+2,f
  1224     06D5  0CA3               	rrf	___xxtofl@arg+1,f
  1225     06D6  0CA2               	rrf	___xxtofl@arg,f
  1226     06D7  3EFF               	addlw	-1
  1227     06D8  1D03               	skipz
  1228     06D9  2ED2               	goto	u1865
  1229     06DA                     l589:
  1230     06DA  30FF               	movlw	255
  1231     06DB  0525               	andwf	___xxtofl@arg+3,w
  1232     06DC  1D03               	btfss	3,2
  1233     06DD  2EDF               	goto	u1871
  1234     06DE  2EE0               	goto	u1870
  1235     06DF                     u1871:
  1236     06DF  2EC1               	goto	l1394
  1237     06E0                     u1870:
  1238     06E0  2EEC               	goto	l1402
  1239     06E1                     l1400:
  1240     06E1  3001               	movlw	1
  1241     06E2  02A1               	subwf	___xxtofl@exp,f
  1242     06E3  3001               	movlw	1
  1243     06E4  00F6               	movwf	??___xxtofl
  1244     06E5                     u1885:
  1245     06E5  1003               	clrc
  1246     06E6  0DA2               	rlf	___xxtofl@arg,f
  1247     06E7  0DA3               	rlf	___xxtofl@arg+1,f
  1248     06E8  0DA4               	rlf	___xxtofl@arg+2,f
  1249     06E9  0DA5               	rlf	___xxtofl@arg+3,f
  1250     06EA  0BF6               	decfsz	??___xxtofl,f
  1251     06EB  2EE5               	goto	u1885
  1252     06EC                     l1402:
  1253     06EC  1BA4               	btfsc	___xxtofl@arg+2,7
  1254     06ED  2EEF               	goto	u1891
  1255     06EE  2EF0               	goto	u1890
  1256     06EF                     u1891:
  1257     06EF  2EF6               	goto	l596
  1258     06F0                     u1890:
  1259     06F0                     l1404:
  1260     06F0  3002               	movlw	2
  1261     06F1  0221               	subwf	___xxtofl@exp,w
  1262     06F2  1803               	skipnc
  1263     06F3  2EF5               	goto	u1901
  1264     06F4  2EF6               	goto	u1900
  1265     06F5                     u1901:
  1266     06F5  2EE1               	goto	l1400
  1267     06F6                     u1900:
  1268     06F6                     l596:
  1269     06F6  1821               	btfsc	___xxtofl@exp,0
  1270     06F7  2EF9               	goto	u1911
  1271     06F8  2EFA               	goto	u1910
  1272     06F9                     u1911:
  1273     06F9  2F02               	goto	l597
  1274     06FA                     u1910:
  1275     06FA                     l1406:
  1276     06FA  30FF               	movlw	255
  1277     06FB  05A2               	andwf	___xxtofl@arg,f
  1278     06FC  30FF               	movlw	255
  1279     06FD  05A3               	andwf	___xxtofl@arg+1,f
  1280     06FE  307F               	movlw	127
  1281     06FF  05A4               	andwf	___xxtofl@arg+2,f
  1282     0700  30FF               	movlw	255
  1283     0701  05A5               	andwf	___xxtofl@arg+3,f
  1284     0702                     l597:
  1285     0702  1003               	clrc
  1286     0703  0CA1               	rrf	___xxtofl@exp,f
  1287     0704                     l1408:
  1288     0704  0821               	movf	___xxtofl@exp,w
  1289     0705  00F6               	movwf	??___xxtofl
  1290     0706  01F7               	clrf	??___xxtofl+1
  1291     0707  01F8               	clrf	??___xxtofl+2
  1292     0708  01F9               	clrf	??___xxtofl+3
  1293     0709  3018               	movlw	24
  1294     070A                     u1925:
  1295     070A  1003               	clrc
  1296     070B  0DF6               	rlf	??___xxtofl,f
  1297     070C  0DF7               	rlf	??___xxtofl+1,f
  1298     070D  0DF8               	rlf	??___xxtofl+2,f
  1299     070E  0DF9               	rlf	??___xxtofl+3,f
  1300     070F                     u1920:
  1301     070F  3EFF               	addlw	-1
  1302     0710  1D03               	skipz
  1303     0711  2F0A               	goto	u1925
  1304     0712  0876               	movf	??___xxtofl,w
  1305     0713  04A2               	iorwf	___xxtofl@arg,f
  1306     0714  0877               	movf	??___xxtofl+1,w
  1307     0715  04A3               	iorwf	___xxtofl@arg+1,f
  1308     0716  0878               	movf	??___xxtofl+2,w
  1309     0717  04A4               	iorwf	___xxtofl@arg+2,f
  1310     0718  0879               	movf	??___xxtofl+3,w
  1311     0719  04A5               	iorwf	___xxtofl@arg+3,f
  1312     071A                     l1410:
  1313     071A  0820               	movf	___xxtofl@sign,w
  1314     071B  1903               	btfsc	3,2
  1315     071C  2F1E               	goto	u1931
  1316     071D  2F1F               	goto	u1930
  1317     071E                     u1931:
  1318     071E  2F24               	goto	l1416
  1319     071F                     u1930:
  1320     071F                     l1412:
  1321     071F  1FF5               	btfss	___xxtofl@val+3,7
  1322     0720  2F22               	goto	u1941
  1323     0721  2F23               	goto	u1940
  1324     0722                     u1941:
  1325     0722  2F24               	goto	l1416
  1326     0723                     u1940:
  1327     0723                     l1414:
  1328     0723  17A5               	bsf	___xxtofl@arg+3,7
  1329     0724                     l1416:
  1330     0724  0825               	movf	___xxtofl@arg+3,w
  1331     0725  00F5               	movwf	?___xxtofl+3
  1332     0726  0824               	movf	___xxtofl@arg+2,w
  1333     0727  00F4               	movwf	?___xxtofl+2
  1334     0728  0823               	movf	___xxtofl@arg+1,w
  1335     0729  00F3               	movwf	?___xxtofl+1
  1336     072A  0822               	movf	___xxtofl@arg,w
  1337     072B  00F2               	movwf	?___xxtofl
  1338     072C                     l585:
  1339     072C  0008               	return
  1340     072D                     __end_of___xxtofl:
  1341                           
  1342                           	psect	text3
  1343     072D                     __ptext3:	
  1344 ;; *************** function ___fltol *****************
  1345 ;; Defined at:
  1346 ;;		line 43 in file "/Applications/microchip/xc8/v3.00/pic/sources/c99/common/fltol.c"
  1347 ;; Parameters:    Size  Location     Type
  1348 ;;  f1              4   57[BANK0 ] unsigned char 
  1349 ;; Auto vars:     Size  Location     Type
  1350 ;;  exp1            1   66[BANK0 ] unsigned char 
  1351 ;;  sign1           1   65[BANK0 ] unsigned char 
  1352 ;; Return value:  Size  Location     Type
  1353 ;;                  4   57[BANK0 ] long 
  1354 ;; Registers used:
  1355 ;;		wreg, status,2, status,0
  1356 ;; Tracked objects:
  1357 ;;		On entry : 0/0
  1358 ;;		On exit  : 0/0
  1359 ;;		Unchanged: 0/0
  1360 ;; Data sizes:     COMMON   BANK0   BANK1   BANK3   BANK2
  1361 ;;      Params:         0       4       0       0       0
  1362 ;;      Locals:         0       2       0       0       0
  1363 ;;      Temps:          0       4       0       0       0
  1364 ;;      Totals:         0      10       0       0       0
  1365 ;;Total ram usage:       10 bytes
  1366 ;; Hardware stack levels used: 1
  1367 ;; Hardware stack levels required when called: 1
  1368 ;; This function calls:
  1369 ;;		Nothing
  1370 ;; This function is called by:
  1371 ;;		_my_delay_ms
  1372 ;; This function uses a non-reentrant model
  1373 ;;
  1374                           
  1375     072D                     ___fltol:	
  1376                           ;psect for function ___fltol
  1377                           
  1378     072D                     l1056:	
  1379                           ;incstack = 0
  1380                           ; Regs used in ___fltol: [wreg+status,2+status,0]
  1381                           
  1382     072D  1003               	clrc
  1383     072E  1283               	bcf	3,5	;RP0=0, select bank0
  1384     072F  1303               	bcf	3,6	;RP1=0, select bank0
  1385     0730  0D5B               	rlf	___fltol@f1+2,w
  1386     0731  0D5C               	rlf	___fltol@f1+3,w
  1387     0732  00E2               	movwf	___fltol@exp1
  1388     0733  0862               	movf	___fltol@exp1,w
  1389     0734  1D03               	btfss	3,2
  1390     0735  2F37               	goto	u1051
  1391     0736  2F38               	goto	u1050
  1392     0737                     u1051:
  1393     0737  2F41               	goto	l1062
  1394     0738                     u1050:
  1395     0738                     l1058:
  1396     0738  3000               	movlw	0
  1397     0739  00DC               	movwf	?___fltol+3
  1398     073A  3000               	movlw	0
  1399     073B  00DB               	movwf	?___fltol+2
  1400     073C  3000               	movlw	0
  1401     073D  00DA               	movwf	?___fltol+1
  1402     073E  3000               	movlw	0
  1403     073F  00D9               	movwf	?___fltol
  1404     0740  2FA2               	goto	l336
  1405     0741                     l1062:
  1406     0741  0859               	movf	___fltol@f1,w
  1407     0742  00DD               	movwf	??___fltol
  1408     0743  085A               	movf	___fltol@f1+1,w
  1409     0744  00DE               	movwf	??___fltol+1
  1410     0745  085B               	movf	___fltol@f1+2,w
  1411     0746  00DF               	movwf	??___fltol+2
  1412     0747  085C               	movf	___fltol@f1+3,w
  1413     0748  00E0               	movwf	??___fltol+3
  1414     0749  301F               	movlw	31
  1415     074A                     u1065:
  1416     074A  1003               	clrc
  1417     074B  0CE0               	rrf	??___fltol+3,f
  1418     074C  0CDF               	rrf	??___fltol+2,f
  1419     074D  0CDE               	rrf	??___fltol+1,f
  1420     074E  0CDD               	rrf	??___fltol,f
  1421     074F                     u1060:
  1422     074F  3EFF               	addlw	-1
  1423     0750  1D03               	skipz
  1424     0751  2F4A               	goto	u1065
  1425     0752  085D               	movf	??___fltol,w
  1426     0753  00E1               	movwf	___fltol@sign1
  1427     0754                     l1064:
  1428     0754  17DB               	bsf	___fltol@f1+2,7
  1429     0755                     l1066:
  1430     0755  30FF               	movlw	255
  1431     0756  05D9               	andwf	___fltol@f1,f
  1432     0757  30FF               	movlw	255
  1433     0758  05DA               	andwf	___fltol@f1+1,f
  1434     0759  30FF               	movlw	255
  1435     075A  05DB               	andwf	___fltol@f1+2,f
  1436     075B  3000               	movlw	0
  1437     075C  05DC               	andwf	___fltol@f1+3,f
  1438     075D                     l1068:
  1439     075D  3096               	movlw	150
  1440     075E  02E2               	subwf	___fltol@exp1,f
  1441     075F                     l1070:
  1442     075F  1FE2               	btfss	___fltol@exp1,7
  1443     0760  2F62               	goto	u1071
  1444     0761  2F63               	goto	u1070
  1445     0762                     u1071:
  1446     0762  2F7B               	goto	l1080
  1447     0763                     u1070:
  1448     0763                     l1072:
  1449     0763  0862               	movf	___fltol@exp1,w
  1450     0764  3A80               	xorlw	128
  1451     0765  3E97               	addlw	151
  1452     0766  1803               	skipnc
  1453     0767  2F69               	goto	u1081
  1454     0768  2F6A               	goto	u1080
  1455     0769                     u1081:
  1456     0769  2F6B               	goto	l1078
  1457     076A                     u1080:
  1458     076A  2F38               	goto	l1058
  1459     076B                     l1078:
  1460     076B  3001               	movlw	1
  1461     076C                     u1095:
  1462     076C  1003               	clrc
  1463     076D  0CDC               	rrf	___fltol@f1+3,f
  1464     076E  0CDB               	rrf	___fltol@f1+2,f
  1465     076F  0CDA               	rrf	___fltol@f1+1,f
  1466     0770  0CD9               	rrf	___fltol@f1,f
  1467     0771  3EFF               	addlw	-1
  1468     0772  1D03               	skipz
  1469     0773  2F6C               	goto	u1095
  1470     0774  3001               	movlw	1
  1471     0775  07E2               	addwf	___fltol@exp1,f
  1472     0776  1D03               	btfss	3,2
  1473     0777  2F79               	goto	u1101
  1474     0778  2F7A               	goto	u1100
  1475     0779                     u1101:
  1476     0779  2F6B               	goto	l1078
  1477     077A                     u1100:
  1478     077A  2F92               	goto	l1088
  1479     077B                     l1080:
  1480     077B  3020               	movlw	32
  1481     077C  0262               	subwf	___fltol@exp1,w
  1482     077D  1C03               	skipc
  1483     077E  2F80               	goto	u1111
  1484     077F  2F81               	goto	u1110
  1485     0780                     u1111:
  1486     0780  2F8D               	goto	l343
  1487     0781                     u1110:
  1488     0781  2F38               	goto	l1058
  1489     0782                     l1086:
  1490     0782  3001               	movlw	1
  1491     0783  00DD               	movwf	??___fltol
  1492     0784                     u1125:
  1493     0784  1003               	clrc
  1494     0785  0DD9               	rlf	___fltol@f1,f
  1495     0786  0DDA               	rlf	___fltol@f1+1,f
  1496     0787  0DDB               	rlf	___fltol@f1+2,f
  1497     0788  0DDC               	rlf	___fltol@f1+3,f
  1498     0789  0BDD               	decfsz	??___fltol,f
  1499     078A  2F84               	goto	u1125
  1500     078B  3001               	movlw	1
  1501     078C  02E2               	subwf	___fltol@exp1,f
  1502     078D                     l343:
  1503     078D  0862               	movf	___fltol@exp1,w
  1504     078E  1D03               	btfss	3,2
  1505     078F  2F91               	goto	u1131
  1506     0790  2F92               	goto	u1130
  1507     0791                     u1131:
  1508     0791  2F82               	goto	l1086
  1509     0792                     u1130:
  1510     0792                     l1088:
  1511     0792  0861               	movf	___fltol@sign1,w
  1512     0793  1903               	btfsc	3,2
  1513     0794  2F96               	goto	u1141
  1514     0795  2F97               	goto	u1140
  1515     0796                     u1141:
  1516     0796  2FA2               	goto	l346
  1517     0797                     u1140:
  1518     0797                     l1090:
  1519     0797  09D9               	comf	___fltol@f1,f
  1520     0798  09DA               	comf	___fltol@f1+1,f
  1521     0799  09DB               	comf	___fltol@f1+2,f
  1522     079A  09DC               	comf	___fltol@f1+3,f
  1523     079B  0AD9               	incf	___fltol@f1,f
  1524     079C  1903               	skipnz
  1525     079D  0ADA               	incf	___fltol@f1+1,f
  1526     079E  1903               	skipnz
  1527     079F  0ADB               	incf	___fltol@f1+2,f
  1528     07A0  1903               	skipnz
  1529     07A1  0ADC               	incf	___fltol@f1+3,f
  1530     07A2                     l346:
  1531     07A2                     l336:
  1532     07A2  0008               	return
  1533     07A3                     __end_of___fltol:
  1534                           
  1535                           	psect	text4
  1536     001B                     __ptext4:	
  1537 ;; *************** function ___flmul *****************
  1538 ;; Defined at:
  1539 ;;		line 8 in file "/Applications/microchip/xc8/v3.00/pic/sources/c99/common/sprcmul.c"
  1540 ;; Parameters:    Size  Location     Type
  1541 ;;  b               4    5[BANK0 ] long 
  1542 ;;  a               4    9[BANK0 ] long 
  1543 ;; Auto vars:     Size  Location     Type
  1544 ;;  prod            4   25[BANK0 ] struct .
  1545 ;;  grs             4   20[BANK0 ] unsigned long 
  1546 ;;  temp            2   29[BANK0 ] struct .
  1547 ;;  bexp            1   24[BANK0 ] unsigned char 
  1548 ;;  aexp            1   19[BANK0 ] unsigned char 
  1549 ;;  sign            1   18[BANK0 ] unsigned char 
  1550 ;; Return value:  Size  Location     Type
  1551 ;;                  4    5[BANK0 ] unsigned char 
  1552 ;; Registers used:
  1553 ;;		wreg, status,2, status,0, btemp+1, pclath, cstack
  1554 ;; Tracked objects:
  1555 ;;		On entry : 0/0
  1556 ;;		On exit  : 0/0
  1557 ;;		Unchanged: 0/0
  1558 ;; Data sizes:     COMMON   BANK0   BANK1   BANK3   BANK2
  1559 ;;      Params:         0       8       0       0       0
  1560 ;;      Locals:         0      13       0       0       0
  1561 ;;      Temps:          0       5       0       0       0
  1562 ;;      Totals:         0      26       0       0       0
  1563 ;;Total ram usage:       26 bytes
  1564 ;; Hardware stack levels used: 1
  1565 ;; Hardware stack levels required when called: 2
  1566 ;; This function calls:
  1567 ;;		__Umul8_16
  1568 ;; This function is called by:
  1569 ;;		_my_delay_ms
  1570 ;; This function uses a non-reentrant model
  1571 ;;
  1572                           
  1573     001B                     ___flmul:	
  1574                           ;psect for function ___flmul
  1575                           
  1576     001B                     l1498:	
  1577                           ;incstack = 0
  1578                           ; Regs used in ___flmul: [wreg+status,2+status,0+btemp+1+pclath+cstack]
  1579                           
  1580     001B  1283               	bcf	3,5	;RP0=0, select bank0
  1581     001C  1303               	bcf	3,6	;RP1=0, select bank0
  1582     001D  0828               	movf	___flmul@b+3,w
  1583     001E  00B2               	movwf	___flmul@sign
  1584     001F                     l1500:
  1585     001F  3080               	movlw	128
  1586     0020  05B2               	andwf	___flmul@sign,f
  1587     0021                     l1502:
  1588     0021  0828               	movf	___flmul@b+3,w
  1589     0022  00AD               	movwf	??___flmul
  1590     0023  072D               	addwf	??___flmul,w
  1591     0024  00B8               	movwf	___flmul@bexp
  1592     0025                     l1504:
  1593     0025  1FA7               	btfss	___flmul@b+2,7
  1594     0026  2828               	goto	u2061
  1595     0027  2829               	goto	u2060
  1596     0028                     u2061:
  1597     0028  282A               	goto	l1508
  1598     0029                     u2060:
  1599     0029                     l1506:
  1600     0029  1438               	bsf	___flmul@bexp,0
  1601     002A                     l1508:
  1602     002A  0838               	movf	___flmul@bexp,w
  1603     002B  1903               	btfsc	3,2
  1604     002C  282E               	goto	u2071
  1605     002D  282F               	goto	u2070
  1606     002E                     u2071:
  1607     002E  283E               	goto	l1516
  1608     002F                     u2070:
  1609     002F                     l1510:
  1610     002F  0A38               	incf	___flmul@bexp,w
  1611     0030  1D03               	btfss	3,2
  1612     0031  2833               	goto	u2081
  1613     0032  2834               	goto	u2080
  1614     0033                     u2081:
  1615     0033  283C               	goto	l1514
  1616     0034                     u2080:
  1617     0034                     l1512:
  1618     0034  3000               	movlw	0
  1619     0035  00A8               	movwf	___flmul@b+3
  1620     0036  3000               	movlw	0
  1621     0037  00A7               	movwf	___flmul@b+2
  1622     0038  3000               	movlw	0
  1623     0039  00A6               	movwf	___flmul@b+1
  1624     003A  3000               	movlw	0
  1625     003B  00A5               	movwf	___flmul@b
  1626     003C                     l1514:
  1627     003C  17A7               	bsf	___flmul@b+2,7
  1628     003D  2846               	goto	l1518
  1629     003E                     l1516:
  1630     003E  3000               	movlw	0
  1631     003F  00A8               	movwf	___flmul@b+3
  1632     0040  3000               	movlw	0
  1633     0041  00A7               	movwf	___flmul@b+2
  1634     0042  3000               	movlw	0
  1635     0043  00A6               	movwf	___flmul@b+1
  1636     0044  3000               	movlw	0
  1637     0045  00A5               	movwf	___flmul@b
  1638     0046                     l1518:
  1639     0046  082C               	movf	___flmul@a+3,w
  1640     0047  3980               	andlw	128
  1641     0048  06B2               	xorwf	___flmul@sign,f
  1642     0049                     l1520:
  1643     0049  082C               	movf	___flmul@a+3,w
  1644     004A  00AD               	movwf	??___flmul
  1645     004B  072D               	addwf	??___flmul,w
  1646     004C  00B3               	movwf	___flmul@aexp
  1647     004D                     l1522:
  1648     004D  1FAB               	btfss	___flmul@a+2,7
  1649     004E  2850               	goto	u2091
  1650     004F  2851               	goto	u2090
  1651     0050                     u2091:
  1652     0050  2852               	goto	l1526
  1653     0051                     u2090:
  1654     0051                     l1524:
  1655     0051  1433               	bsf	___flmul@aexp,0
  1656     0052                     l1526:
  1657     0052  0833               	movf	___flmul@aexp,w
  1658     0053  1903               	btfsc	3,2
  1659     0054  2856               	goto	u2101
  1660     0055  2857               	goto	u2100
  1661     0056                     u2101:
  1662     0056  2866               	goto	l1534
  1663     0057                     u2100:
  1664     0057                     l1528:
  1665     0057  0A33               	incf	___flmul@aexp,w
  1666     0058  1D03               	btfss	3,2
  1667     0059  285B               	goto	u2111
  1668     005A  285C               	goto	u2110
  1669     005B                     u2111:
  1670     005B  2864               	goto	l1532
  1671     005C                     u2110:
  1672     005C                     l1530:
  1673     005C  3000               	movlw	0
  1674     005D  00AC               	movwf	___flmul@a+3
  1675     005E  3000               	movlw	0
  1676     005F  00AB               	movwf	___flmul@a+2
  1677     0060  3000               	movlw	0
  1678     0061  00AA               	movwf	___flmul@a+1
  1679     0062  3000               	movlw	0
  1680     0063  00A9               	movwf	___flmul@a
  1681     0064                     l1532:
  1682     0064  17AB               	bsf	___flmul@a+2,7
  1683     0065  286E               	goto	l1536
  1684     0066                     l1534:
  1685     0066  3000               	movlw	0
  1686     0067  00AC               	movwf	___flmul@a+3
  1687     0068  3000               	movlw	0
  1688     0069  00AB               	movwf	___flmul@a+2
  1689     006A  3000               	movlw	0
  1690     006B  00AA               	movwf	___flmul@a+1
  1691     006C  3000               	movlw	0
  1692     006D  00A9               	movwf	___flmul@a
  1693     006E                     l1536:
  1694     006E  0833               	movf	___flmul@aexp,w
  1695     006F  1903               	btfsc	3,2
  1696     0070  2872               	goto	u2121
  1697     0071  2873               	goto	u2120
  1698     0072                     u2121:
  1699     0072  2878               	goto	l1540
  1700     0073                     u2120:
  1701     0073                     l1538:
  1702     0073  0838               	movf	___flmul@bexp,w
  1703     0074  1D03               	btfss	3,2
  1704     0075  2877               	goto	u2131
  1705     0076  2878               	goto	u2130
  1706     0077                     u2131:
  1707     0077  2881               	goto	l1544
  1708     0078                     u2130:
  1709     0078                     l1540:
  1710     0078  3000               	movlw	0
  1711     0079  00A8               	movwf	?___flmul+3
  1712     007A  3000               	movlw	0
  1713     007B  00A7               	movwf	?___flmul+2
  1714     007C  3000               	movlw	0
  1715     007D  00A6               	movwf	?___flmul+1
  1716     007E  3000               	movlw	0
  1717     007F  00A5               	movwf	?___flmul
  1718     0080  2B5C               	goto	l539
  1719     0081                     l1544:
  1720     0081  0825               	movf	___flmul@b,w
  1721     0082  00F2               	movwf	__Umul8_16@multiplicand
  1722     0083  082B               	movf	___flmul@a+2,w
  1723     0084  120A  118A  27A3  120A  118A  	fcall	__Umul8_16
  1724     0089  0873               	movf	?__Umul8_16+1,w
  1725     008A  1283               	bcf	3,5	;RP0=0, select bank0
  1726     008B  1303               	bcf	3,6	;RP1=0, select bank0
  1727     008C  00BE               	movwf	___flmul@temp+1
  1728     008D  0872               	movf	?__Umul8_16,w
  1729     008E  00BD               	movwf	___flmul@temp
  1730     008F                     l1546:
  1731     008F  083D               	movf	___flmul@temp,w
  1732     0090  00AD               	movwf	??___flmul
  1733     0091  01AE               	clrf	??___flmul+1
  1734     0092  01AF               	clrf	??___flmul+2
  1735     0093  01B0               	clrf	??___flmul+3
  1736     0094  0830               	movf	??___flmul+3,w
  1737     0095  00B7               	movwf	___flmul@grs+3
  1738     0096  082F               	movf	??___flmul+2,w
  1739     0097  00B6               	movwf	___flmul@grs+2
  1740     0098  082E               	movf	??___flmul+1,w
  1741     0099  00B5               	movwf	___flmul@grs+1
  1742     009A  082D               	movf	??___flmul,w
  1743     009B  00B4               	movwf	___flmul@grs
  1744     009C                     l1548:
  1745     009C  083E               	movf	___flmul@temp+1,w
  1746     009D  00AD               	movwf	??___flmul
  1747     009E  01AE               	clrf	??___flmul+1
  1748     009F  01AF               	clrf	??___flmul+2
  1749     00A0  01B0               	clrf	??___flmul+3
  1750     00A1  0830               	movf	??___flmul+3,w
  1751     00A2  00BC               	movwf	___flmul@prod+3
  1752     00A3  082F               	movf	??___flmul+2,w
  1753     00A4  00BB               	movwf	___flmul@prod+2
  1754     00A5  082E               	movf	??___flmul+1,w
  1755     00A6  00BA               	movwf	___flmul@prod+1
  1756     00A7  082D               	movf	??___flmul,w
  1757     00A8  00B9               	movwf	___flmul@prod
  1758     00A9  0826               	movf	___flmul@b+1,w
  1759     00AA  00F2               	movwf	__Umul8_16@multiplicand
  1760     00AB  082A               	movf	___flmul@a+1,w
  1761     00AC  120A  118A  27A3  120A  118A  	fcall	__Umul8_16
  1762     00B1  0873               	movf	?__Umul8_16+1,w
  1763     00B2  1283               	bcf	3,5	;RP0=0, select bank0
  1764     00B3  1303               	bcf	3,6	;RP1=0, select bank0
  1765     00B4  00BE               	movwf	___flmul@temp+1
  1766     00B5  0872               	movf	?__Umul8_16,w
  1767     00B6  00BD               	movwf	___flmul@temp
  1768     00B7                     l1550:
  1769     00B7  083D               	movf	___flmul@temp,w
  1770     00B8  00AD               	movwf	??___flmul
  1771     00B9  01AE               	clrf	??___flmul+1
  1772     00BA  01AF               	clrf	??___flmul+2
  1773     00BB  01B0               	clrf	??___flmul+3
  1774     00BC  082D               	movf	??___flmul,w
  1775     00BD  07B4               	addwf	___flmul@grs,f
  1776     00BE  082E               	movf	??___flmul+1,w
  1777     00BF  1103               	clrz
  1778     00C0  1803               	skipnc
  1779     00C1  3E01               	addlw	1
  1780     00C2  1903               	skipnz
  1781     00C3  28C5               	goto	u2141
  1782     00C4  07B5               	addwf	___flmul@grs+1,f
  1783     00C5                     u2141:
  1784     00C5  082F               	movf	??___flmul+2,w
  1785     00C6  1103               	clrz
  1786     00C7  1803               	skipnc
  1787     00C8  3E01               	addlw	1
  1788     00C9  1903               	skipnz
  1789     00CA  28CC               	goto	u2142
  1790     00CB  07B6               	addwf	___flmul@grs+2,f
  1791     00CC                     u2142:
  1792     00CC  0830               	movf	??___flmul+3,w
  1793     00CD  1103               	clrz
  1794     00CE  1803               	skipnc
  1795     00CF  3E01               	addlw	1
  1796     00D0  1903               	skipnz
  1797     00D1  28D3               	goto	u2143
  1798     00D2  07B7               	addwf	___flmul@grs+3,f
  1799     00D3                     u2143:
  1800     00D3                     l1552:
  1801     00D3  083E               	movf	___flmul@temp+1,w
  1802     00D4  00AD               	movwf	??___flmul
  1803     00D5  01AE               	clrf	??___flmul+1
  1804     00D6  01AF               	clrf	??___flmul+2
  1805     00D7  01B0               	clrf	??___flmul+3
  1806     00D8  082D               	movf	??___flmul,w
  1807     00D9  07B9               	addwf	___flmul@prod,f
  1808     00DA  082E               	movf	??___flmul+1,w
  1809     00DB  1103               	clrz
  1810     00DC  1803               	skipnc
  1811     00DD  3E01               	addlw	1
  1812     00DE  1903               	skipnz
  1813     00DF  28E1               	goto	u2151
  1814     00E0  07BA               	addwf	___flmul@prod+1,f
  1815     00E1                     u2151:
  1816     00E1  082F               	movf	??___flmul+2,w
  1817     00E2  1103               	clrz
  1818     00E3  1803               	skipnc
  1819     00E4  3E01               	addlw	1
  1820     00E5  1903               	skipnz
  1821     00E6  28E8               	goto	u2152
  1822     00E7  07BB               	addwf	___flmul@prod+2,f
  1823     00E8                     u2152:
  1824     00E8  0830               	movf	??___flmul+3,w
  1825     00E9  1103               	clrz
  1826     00EA  1803               	skipnc
  1827     00EB  3E01               	addlw	1
  1828     00EC  1903               	skipnz
  1829     00ED  28EF               	goto	u2153
  1830     00EE  07BC               	addwf	___flmul@prod+3,f
  1831     00EF                     u2153:
  1832     00EF  0827               	movf	___flmul@b+2,w
  1833     00F0  00F2               	movwf	__Umul8_16@multiplicand
  1834     00F1  0829               	movf	___flmul@a,w
  1835     00F2  120A  118A  27A3  120A  118A  	fcall	__Umul8_16
  1836     00F7  0873               	movf	?__Umul8_16+1,w
  1837     00F8  1283               	bcf	3,5	;RP0=0, select bank0
  1838     00F9  1303               	bcf	3,6	;RP1=0, select bank0
  1839     00FA  00BE               	movwf	___flmul@temp+1
  1840     00FB  0872               	movf	?__Umul8_16,w
  1841     00FC  00BD               	movwf	___flmul@temp
  1842     00FD                     l1554:
  1843     00FD  083D               	movf	___flmul@temp,w
  1844     00FE  00AD               	movwf	??___flmul
  1845     00FF  01AE               	clrf	??___flmul+1
  1846     0100  01AF               	clrf	??___flmul+2
  1847     0101  01B0               	clrf	??___flmul+3
  1848     0102  082D               	movf	??___flmul,w
  1849     0103  07B4               	addwf	___flmul@grs,f
  1850     0104  082E               	movf	??___flmul+1,w
  1851     0105  1103               	clrz
  1852     0106  1803               	skipnc
  1853     0107  3E01               	addlw	1
  1854     0108  1903               	skipnz
  1855     0109  290B               	goto	u2161
  1856     010A  07B5               	addwf	___flmul@grs+1,f
  1857     010B                     u2161:
  1858     010B  082F               	movf	??___flmul+2,w
  1859     010C  1103               	clrz
  1860     010D  1803               	skipnc
  1861     010E  3E01               	addlw	1
  1862     010F  1903               	skipnz
  1863     0110  2912               	goto	u2162
  1864     0111  07B6               	addwf	___flmul@grs+2,f
  1865     0112                     u2162:
  1866     0112  0830               	movf	??___flmul+3,w
  1867     0113  1103               	clrz
  1868     0114  1803               	skipnc
  1869     0115  3E01               	addlw	1
  1870     0116  1903               	skipnz
  1871     0117  2919               	goto	u2163
  1872     0118  07B7               	addwf	___flmul@grs+3,f
  1873     0119                     u2163:
  1874     0119                     l1556:
  1875     0119  083E               	movf	___flmul@temp+1,w
  1876     011A  00AD               	movwf	??___flmul
  1877     011B  01AE               	clrf	??___flmul+1
  1878     011C  01AF               	clrf	??___flmul+2
  1879     011D  01B0               	clrf	??___flmul+3
  1880     011E  082D               	movf	??___flmul,w
  1881     011F  07B9               	addwf	___flmul@prod,f
  1882     0120  082E               	movf	??___flmul+1,w
  1883     0121  1103               	clrz
  1884     0122  1803               	skipnc
  1885     0123  3E01               	addlw	1
  1886     0124  1903               	skipnz
  1887     0125  2927               	goto	u2171
  1888     0126  07BA               	addwf	___flmul@prod+1,f
  1889     0127                     u2171:
  1890     0127  082F               	movf	??___flmul+2,w
  1891     0128  1103               	clrz
  1892     0129  1803               	skipnc
  1893     012A  3E01               	addlw	1
  1894     012B  1903               	skipnz
  1895     012C  292E               	goto	u2172
  1896     012D  07BB               	addwf	___flmul@prod+2,f
  1897     012E                     u2172:
  1898     012E  0830               	movf	??___flmul+3,w
  1899     012F  1103               	clrz
  1900     0130  1803               	skipnc
  1901     0131  3E01               	addlw	1
  1902     0132  1903               	skipnz
  1903     0133  2935               	goto	u2173
  1904     0134  07BC               	addwf	___flmul@prod+3,f
  1905     0135                     u2173:
  1906     0135                     l1558:
  1907     0135  3008               	movlw	8
  1908     0136  00AD               	movwf	??___flmul
  1909     0137                     u2185:
  1910     0137  1003               	clrc
  1911     0138  0DB4               	rlf	___flmul@grs,f
  1912     0139  0DB5               	rlf	___flmul@grs+1,f
  1913     013A  0DB6               	rlf	___flmul@grs+2,f
  1914     013B  0DB7               	rlf	___flmul@grs+3,f
  1915     013C  0BAD               	decfsz	??___flmul,f
  1916     013D  2937               	goto	u2185
  1917     013E                     l1560:
  1918     013E  0826               	movf	___flmul@b+1,w
  1919     013F  00F2               	movwf	__Umul8_16@multiplicand
  1920     0140  0829               	movf	___flmul@a,w
  1921     0141  120A  118A  27A3  120A  118A  	fcall	__Umul8_16
  1922     0146  0873               	movf	?__Umul8_16+1,w
  1923     0147  1283               	bcf	3,5	;RP0=0, select bank0
  1924     0148  1303               	bcf	3,6	;RP1=0, select bank0
  1925     0149  00BE               	movwf	___flmul@temp+1
  1926     014A  0872               	movf	?__Umul8_16,w
  1927     014B  00BD               	movwf	___flmul@temp
  1928     014C                     l1562:
  1929     014C  083D               	movf	___flmul@temp,w
  1930     014D  00AD               	movwf	??___flmul
  1931     014E  083E               	movf	___flmul@temp+1,w
  1932     014F  00AE               	movwf	??___flmul+1
  1933     0150  01AF               	clrf	??___flmul+2
  1934     0151  01B0               	clrf	??___flmul+3
  1935     0152  082D               	movf	??___flmul,w
  1936     0153  07B4               	addwf	___flmul@grs,f
  1937     0154  082E               	movf	??___flmul+1,w
  1938     0155  1103               	clrz
  1939     0156  1803               	skipnc
  1940     0157  3E01               	addlw	1
  1941     0158  1903               	skipnz
  1942     0159  295B               	goto	u2191
  1943     015A  07B5               	addwf	___flmul@grs+1,f
  1944     015B                     u2191:
  1945     015B  082F               	movf	??___flmul+2,w
  1946     015C  1103               	clrz
  1947     015D  1803               	skipnc
  1948     015E  3E01               	addlw	1
  1949     015F  1903               	skipnz
  1950     0160  2962               	goto	u2192
  1951     0161  07B6               	addwf	___flmul@grs+2,f
  1952     0162                     u2192:
  1953     0162  0830               	movf	??___flmul+3,w
  1954     0163  1103               	clrz
  1955     0164  1803               	skipnc
  1956     0165  3E01               	addlw	1
  1957     0166  1903               	skipnz
  1958     0167  2969               	goto	u2193
  1959     0168  07B7               	addwf	___flmul@grs+3,f
  1960     0169                     u2193:
  1961     0169                     l1564:
  1962     0169  0825               	movf	___flmul@b,w
  1963     016A  00F2               	movwf	__Umul8_16@multiplicand
  1964     016B  082A               	movf	___flmul@a+1,w
  1965     016C  120A  118A  27A3  120A  118A  	fcall	__Umul8_16
  1966     0171  0873               	movf	?__Umul8_16+1,w
  1967     0172  1283               	bcf	3,5	;RP0=0, select bank0
  1968     0173  1303               	bcf	3,6	;RP1=0, select bank0
  1969     0174  00BE               	movwf	___flmul@temp+1
  1970     0175  0872               	movf	?__Umul8_16,w
  1971     0176  00BD               	movwf	___flmul@temp
  1972     0177                     l1566:
  1973     0177  083D               	movf	___flmul@temp,w
  1974     0178  00AD               	movwf	??___flmul
  1975     0179  083E               	movf	___flmul@temp+1,w
  1976     017A  00AE               	movwf	??___flmul+1
  1977     017B  01AF               	clrf	??___flmul+2
  1978     017C  01B0               	clrf	??___flmul+3
  1979     017D  082D               	movf	??___flmul,w
  1980     017E  07B4               	addwf	___flmul@grs,f
  1981     017F  082E               	movf	??___flmul+1,w
  1982     0180  1103               	clrz
  1983     0181  1803               	skipnc
  1984     0182  3E01               	addlw	1
  1985     0183  1903               	skipnz
  1986     0184  2986               	goto	u2201
  1987     0185  07B5               	addwf	___flmul@grs+1,f
  1988     0186                     u2201:
  1989     0186  082F               	movf	??___flmul+2,w
  1990     0187  1103               	clrz
  1991     0188  1803               	skipnc
  1992     0189  3E01               	addlw	1
  1993     018A  1903               	skipnz
  1994     018B  298D               	goto	u2202
  1995     018C  07B6               	addwf	___flmul@grs+2,f
  1996     018D                     u2202:
  1997     018D  0830               	movf	??___flmul+3,w
  1998     018E  1103               	clrz
  1999     018F  1803               	skipnc
  2000     0190  3E01               	addlw	1
  2001     0191  1903               	skipnz
  2002     0192  2994               	goto	u2203
  2003     0193  07B7               	addwf	___flmul@grs+3,f
  2004     0194                     u2203:
  2005     0194                     l1568:
  2006     0194  3008               	movlw	8
  2007     0195  00AD               	movwf	??___flmul
  2008     0196                     u2215:
  2009     0196  1003               	clrc
  2010     0197  0DB4               	rlf	___flmul@grs,f
  2011     0198  0DB5               	rlf	___flmul@grs+1,f
  2012     0199  0DB6               	rlf	___flmul@grs+2,f
  2013     019A  0DB7               	rlf	___flmul@grs+3,f
  2014     019B  0BAD               	decfsz	??___flmul,f
  2015     019C  2996               	goto	u2215
  2016     019D  0825               	movf	___flmul@b,w
  2017     019E  00F2               	movwf	__Umul8_16@multiplicand
  2018     019F  0829               	movf	___flmul@a,w
  2019     01A0  120A  118A  27A3  120A  118A  	fcall	__Umul8_16
  2020     01A5  0873               	movf	?__Umul8_16+1,w
  2021     01A6  1283               	bcf	3,5	;RP0=0, select bank0
  2022     01A7  1303               	bcf	3,6	;RP1=0, select bank0
  2023     01A8  00BE               	movwf	___flmul@temp+1
  2024     01A9  0872               	movf	?__Umul8_16,w
  2025     01AA  00BD               	movwf	___flmul@temp
  2026     01AB                     l1570:
  2027     01AB  083D               	movf	___flmul@temp,w
  2028     01AC  00AD               	movwf	??___flmul
  2029     01AD  083E               	movf	___flmul@temp+1,w
  2030     01AE  00AE               	movwf	??___flmul+1
  2031     01AF  01AF               	clrf	??___flmul+2
  2032     01B0  01B0               	clrf	??___flmul+3
  2033     01B1  082D               	movf	??___flmul,w
  2034     01B2  07B4               	addwf	___flmul@grs,f
  2035     01B3  082E               	movf	??___flmul+1,w
  2036     01B4  1103               	clrz
  2037     01B5  1803               	skipnc
  2038     01B6  3E01               	addlw	1
  2039     01B7  1903               	skipnz
  2040     01B8  29BA               	goto	u2221
  2041     01B9  07B5               	addwf	___flmul@grs+1,f
  2042     01BA                     u2221:
  2043     01BA  082F               	movf	??___flmul+2,w
  2044     01BB  1103               	clrz
  2045     01BC  1803               	skipnc
  2046     01BD  3E01               	addlw	1
  2047     01BE  1903               	skipnz
  2048     01BF  29C1               	goto	u2222
  2049     01C0  07B6               	addwf	___flmul@grs+2,f
  2050     01C1                     u2222:
  2051     01C1  0830               	movf	??___flmul+3,w
  2052     01C2  1103               	clrz
  2053     01C3  1803               	skipnc
  2054     01C4  3E01               	addlw	1
  2055     01C5  1903               	skipnz
  2056     01C6  29C8               	goto	u2223
  2057     01C7  07B7               	addwf	___flmul@grs+3,f
  2058     01C8                     u2223:
  2059     01C8                     l1572:
  2060     01C8  0826               	movf	___flmul@b+1,w
  2061     01C9  00F2               	movwf	__Umul8_16@multiplicand
  2062     01CA  082B               	movf	___flmul@a+2,w
  2063     01CB  120A  118A  27A3  120A  118A  	fcall	__Umul8_16
  2064     01D0  0873               	movf	?__Umul8_16+1,w
  2065     01D1  1283               	bcf	3,5	;RP0=0, select bank0
  2066     01D2  1303               	bcf	3,6	;RP1=0, select bank0
  2067     01D3  00BE               	movwf	___flmul@temp+1
  2068     01D4  0872               	movf	?__Umul8_16,w
  2069     01D5  00BD               	movwf	___flmul@temp
  2070     01D6  083D               	movf	___flmul@temp,w
  2071     01D7  00AD               	movwf	??___flmul
  2072     01D8  083E               	movf	___flmul@temp+1,w
  2073     01D9  00AE               	movwf	??___flmul+1
  2074     01DA  01AF               	clrf	??___flmul+2
  2075     01DB  01B0               	clrf	??___flmul+3
  2076     01DC  082D               	movf	??___flmul,w
  2077     01DD  07B9               	addwf	___flmul@prod,f
  2078     01DE  082E               	movf	??___flmul+1,w
  2079     01DF  1103               	clrz
  2080     01E0  1803               	skipnc
  2081     01E1  3E01               	addlw	1
  2082     01E2  1903               	skipnz
  2083     01E3  29E5               	goto	u2231
  2084     01E4  07BA               	addwf	___flmul@prod+1,f
  2085     01E5                     u2231:
  2086     01E5  082F               	movf	??___flmul+2,w
  2087     01E6  1103               	clrz
  2088     01E7  1803               	skipnc
  2089     01E8  3E01               	addlw	1
  2090     01E9  1903               	skipnz
  2091     01EA  29EC               	goto	u2232
  2092     01EB  07BB               	addwf	___flmul@prod+2,f
  2093     01EC                     u2232:
  2094     01EC  0830               	movf	??___flmul+3,w
  2095     01ED  1103               	clrz
  2096     01EE  1803               	skipnc
  2097     01EF  3E01               	addlw	1
  2098     01F0  1903               	skipnz
  2099     01F1  29F3               	goto	u2233
  2100     01F2  07BC               	addwf	___flmul@prod+3,f
  2101     01F3                     u2233:
  2102     01F3                     l1574:
  2103     01F3  0827               	movf	___flmul@b+2,w
  2104     01F4  00F2               	movwf	__Umul8_16@multiplicand
  2105     01F5  082A               	movf	___flmul@a+1,w
  2106     01F6  120A  118A  27A3  120A  118A  	fcall	__Umul8_16
  2107     01FB  0873               	movf	?__Umul8_16+1,w
  2108     01FC  1283               	bcf	3,5	;RP0=0, select bank0
  2109     01FD  1303               	bcf	3,6	;RP1=0, select bank0
  2110     01FE  00BE               	movwf	___flmul@temp+1
  2111     01FF  0872               	movf	?__Umul8_16,w
  2112     0200  00BD               	movwf	___flmul@temp
  2113     0201                     l1576:
  2114     0201  083D               	movf	___flmul@temp,w
  2115     0202  00AD               	movwf	??___flmul
  2116     0203  083E               	movf	___flmul@temp+1,w
  2117     0204  00AE               	movwf	??___flmul+1
  2118     0205  01AF               	clrf	??___flmul+2
  2119     0206  01B0               	clrf	??___flmul+3
  2120     0207  082D               	movf	??___flmul,w
  2121     0208  07B9               	addwf	___flmul@prod,f
  2122     0209  082E               	movf	??___flmul+1,w
  2123     020A  1103               	clrz
  2124     020B  1803               	skipnc
  2125     020C  3E01               	addlw	1
  2126     020D  1903               	skipnz
  2127     020E  2A10               	goto	u2241
  2128     020F  07BA               	addwf	___flmul@prod+1,f
  2129     0210                     u2241:
  2130     0210  082F               	movf	??___flmul+2,w
  2131     0211  1103               	clrz
  2132     0212  1803               	skipnc
  2133     0213  3E01               	addlw	1
  2134     0214  1903               	skipnz
  2135     0215  2A17               	goto	u2242
  2136     0216  07BB               	addwf	___flmul@prod+2,f
  2137     0217                     u2242:
  2138     0217  0830               	movf	??___flmul+3,w
  2139     0218  1103               	clrz
  2140     0219  1803               	skipnc
  2141     021A  3E01               	addlw	1
  2142     021B  1903               	skipnz
  2143     021C  2A1E               	goto	u2243
  2144     021D  07BC               	addwf	___flmul@prod+3,f
  2145     021E                     u2243:
  2146     021E  0827               	movf	___flmul@b+2,w
  2147     021F  00F2               	movwf	__Umul8_16@multiplicand
  2148     0220  082B               	movf	___flmul@a+2,w
  2149     0221  120A  118A  27A3  120A  118A  	fcall	__Umul8_16
  2150     0226  0873               	movf	?__Umul8_16+1,w
  2151     0227  1283               	bcf	3,5	;RP0=0, select bank0
  2152     0228  1303               	bcf	3,6	;RP1=0, select bank0
  2153     0229  00BE               	movwf	___flmul@temp+1
  2154     022A  0872               	movf	?__Umul8_16,w
  2155     022B  00BD               	movwf	___flmul@temp
  2156     022C                     l1578:
  2157     022C  083D               	movf	___flmul@temp,w
  2158     022D  00AD               	movwf	??___flmul
  2159     022E  083E               	movf	___flmul@temp+1,w
  2160     022F  00AE               	movwf	??___flmul+1
  2161     0230  01AF               	clrf	??___flmul+2
  2162     0231  01B0               	clrf	??___flmul+3
  2163     0232  3008               	movlw	8
  2164     0233                     u2255:
  2165     0233  1003               	clrc
  2166     0234  0DAD               	rlf	??___flmul,f
  2167     0235  0DAE               	rlf	??___flmul+1,f
  2168     0236  0DAF               	rlf	??___flmul+2,f
  2169     0237  0DB0               	rlf	??___flmul+3,f
  2170     0238                     u2250:
  2171     0238  3EFF               	addlw	-1
  2172     0239  1D03               	skipz
  2173     023A  2A33               	goto	u2255
  2174     023B  082D               	movf	??___flmul,w
  2175     023C  07B9               	addwf	___flmul@prod,f
  2176     023D  082E               	movf	??___flmul+1,w
  2177     023E  1103               	clrz
  2178     023F  1803               	skipnc
  2179     0240  3E01               	addlw	1
  2180     0241  1903               	skipnz
  2181     0242  2A44               	goto	u2261
  2182     0243  07BA               	addwf	___flmul@prod+1,f
  2183     0244                     u2261:
  2184     0244  082F               	movf	??___flmul+2,w
  2185     0245  1103               	clrz
  2186     0246  1803               	skipnc
  2187     0247  3E01               	addlw	1
  2188     0248  1903               	skipnz
  2189     0249  2A4B               	goto	u2262
  2190     024A  07BB               	addwf	___flmul@prod+2,f
  2191     024B                     u2262:
  2192     024B  0830               	movf	??___flmul+3,w
  2193     024C  1103               	clrz
  2194     024D  1803               	skipnc
  2195     024E  3E01               	addlw	1
  2196     024F  1903               	skipnz
  2197     0250  2A52               	goto	u2263
  2198     0251  07BC               	addwf	___flmul@prod+3,f
  2199     0252                     u2263:
  2200     0252                     l1580:
  2201     0252  0834               	movf	___flmul@grs,w
  2202     0253  00AD               	movwf	??___flmul
  2203     0254  0835               	movf	___flmul@grs+1,w
  2204     0255  00AE               	movwf	??___flmul+1
  2205     0256  0836               	movf	___flmul@grs+2,w
  2206     0257  00AF               	movwf	??___flmul+2
  2207     0258  0837               	movf	___flmul@grs+3,w
  2208     0259  00B0               	movwf	??___flmul+3
  2209     025A  3018               	movlw	24
  2210     025B                     u2275:
  2211     025B  1003               	clrc
  2212     025C  0CB0               	rrf	??___flmul+3,f
  2213     025D  0CAF               	rrf	??___flmul+2,f
  2214     025E  0CAE               	rrf	??___flmul+1,f
  2215     025F  0CAD               	rrf	??___flmul,f
  2216     0260                     u2270:
  2217     0260  3EFF               	addlw	-1
  2218     0261  1D03               	skipz
  2219     0262  2A5B               	goto	u2275
  2220     0263  082D               	movf	??___flmul,w
  2221     0264  07B9               	addwf	___flmul@prod,f
  2222     0265  082E               	movf	??___flmul+1,w
  2223     0266  1103               	clrz
  2224     0267  1803               	skipnc
  2225     0268  3E01               	addlw	1
  2226     0269  1903               	skipnz
  2227     026A  2A6C               	goto	u2281
  2228     026B  07BA               	addwf	___flmul@prod+1,f
  2229     026C                     u2281:
  2230     026C  082F               	movf	??___flmul+2,w
  2231     026D  1103               	clrz
  2232     026E  1803               	skipnc
  2233     026F  3E01               	addlw	1
  2234     0270  1903               	skipnz
  2235     0271  2A73               	goto	u2282
  2236     0272  07BB               	addwf	___flmul@prod+2,f
  2237     0273                     u2282:
  2238     0273  0830               	movf	??___flmul+3,w
  2239     0274  1103               	clrz
  2240     0275  1803               	skipnc
  2241     0276  3E01               	addlw	1
  2242     0277  1903               	skipnz
  2243     0278  2A7A               	goto	u2283
  2244     0279  07BC               	addwf	___flmul@prod+3,f
  2245     027A                     u2283:
  2246     027A                     l1582:
  2247     027A  3008               	movlw	8
  2248     027B  00AD               	movwf	??___flmul
  2249     027C                     u2295:
  2250     027C  1003               	clrc
  2251     027D  0DB4               	rlf	___flmul@grs,f
  2252     027E  0DB5               	rlf	___flmul@grs+1,f
  2253     027F  0DB6               	rlf	___flmul@grs+2,f
  2254     0280  0DB7               	rlf	___flmul@grs+3,f
  2255     0281  0BAD               	decfsz	??___flmul,f
  2256     0282  2A7C               	goto	u2295
  2257     0283                     l1584:
  2258     0283  0838               	movf	___flmul@bexp,w
  2259     0284  0733               	addwf	___flmul@aexp,w
  2260     0285  00AD               	movwf	??___flmul
  2261     0286  01AE               	clrf	??___flmul+1
  2262     0287  0DAE               	rlf	??___flmul+1,f
  2263     0288  082D               	movf	??___flmul,w
  2264     0289  3E82               	addlw	130
  2265     028A  00BD               	movwf	___flmul@temp
  2266     028B  082E               	movf	??___flmul+1,w
  2267     028C  1803               	skipnc
  2268     028D  3E01               	addlw	1
  2269     028E  3EFF               	addlw	255
  2270     028F  00BE               	movwf	___flmul@temp+1
  2271     0290  2AAE               	goto	l1596
  2272     0291                     l1586:
  2273     0291  3001               	movlw	1
  2274     0292  00AD               	movwf	??___flmul
  2275     0293                     u2305:
  2276     0293  1003               	clrc
  2277     0294  0DB9               	rlf	___flmul@prod,f
  2278     0295  0DBA               	rlf	___flmul@prod+1,f
  2279     0296  0DBB               	rlf	___flmul@prod+2,f
  2280     0297  0DBC               	rlf	___flmul@prod+3,f
  2281     0298  0BAD               	decfsz	??___flmul,f
  2282     0299  2A93               	goto	u2305
  2283     029A                     l1588:
  2284     029A  1FB7               	btfss	___flmul@grs+3,7
  2285     029B  2A9D               	goto	u2311
  2286     029C  2A9E               	goto	u2310
  2287     029D                     u2311:
  2288     029D  2A9F               	goto	l1592
  2289     029E                     u2310:
  2290     029E                     l1590:
  2291     029E  1439               	bsf	___flmul@prod,0
  2292     029F                     l1592:
  2293     029F  3001               	movlw	1
  2294     02A0  00AD               	movwf	??___flmul
  2295     02A1                     u2325:
  2296     02A1  1003               	clrc
  2297     02A2  0DB4               	rlf	___flmul@grs,f
  2298     02A3  0DB5               	rlf	___flmul@grs+1,f
  2299     02A4  0DB6               	rlf	___flmul@grs+2,f
  2300     02A5  0DB7               	rlf	___flmul@grs+3,f
  2301     02A6  0BAD               	decfsz	??___flmul,f
  2302     02A7  2AA1               	goto	u2325
  2303     02A8                     l1594:
  2304     02A8  30FF               	movlw	255
  2305     02A9  07BD               	addwf	___flmul@temp,f
  2306     02AA  1803               	skipnc
  2307     02AB  0ABE               	incf	___flmul@temp+1,f
  2308     02AC  30FF               	movlw	255
  2309     02AD  07BE               	addwf	___flmul@temp+1,f
  2310     02AE                     l1596:
  2311     02AE  1FBB               	btfss	___flmul@prod+2,7
  2312     02AF  2AB1               	goto	u2331
  2313     02B0  2AB2               	goto	u2330
  2314     02B1                     u2331:
  2315     02B1  2A91               	goto	l1586
  2316     02B2                     u2330:
  2317     02B2                     l1598:
  2318     02B2  01B3               	clrf	___flmul@aexp
  2319     02B3                     l1600:
  2320     02B3  1FB7               	btfss	___flmul@grs+3,7
  2321     02B4  2AB6               	goto	u2341
  2322     02B5  2AB7               	goto	u2340
  2323     02B6                     u2341:
  2324     02B6  2AD3               	goto	l1608
  2325     02B7                     u2340:
  2326     02B7                     l1602:
  2327     02B7  30FF               	movlw	255
  2328     02B8  0534               	andwf	___flmul@grs,w
  2329     02B9  00AD               	movwf	??___flmul
  2330     02BA  30FF               	movlw	255
  2331     02BB  0535               	andwf	___flmul@grs+1,w
  2332     02BC  00AE               	movwf	??___flmul+1
  2333     02BD  30FF               	movlw	255
  2334     02BE  0536               	andwf	___flmul@grs+2,w
  2335     02BF  00AF               	movwf	??___flmul+2
  2336     02C0  307F               	movlw	127
  2337     02C1  0537               	andwf	___flmul@grs+3,w
  2338     02C2  00B0               	movwf	??___flmul+3
  2339     02C3  0830               	movf	??___flmul+3,w
  2340     02C4  042F               	iorwf	??___flmul+2,w
  2341     02C5  042E               	iorwf	??___flmul+1,w
  2342     02C6  042D               	iorwf	??___flmul,w
  2343     02C7  1903               	skipnz
  2344     02C8  2ACA               	goto	u2351
  2345     02C9  2ACB               	goto	u2350
  2346     02CA                     u2351:
  2347     02CA  2ACE               	goto	l545
  2348     02CB                     u2350:
  2349     02CB                     l1604:
  2350     02CB  3001               	movlw	1
  2351     02CC  00B3               	movwf	___flmul@aexp
  2352     02CD  2AD3               	goto	l1608
  2353     02CE                     l545:
  2354     02CE  1C39               	btfss	___flmul@prod,0
  2355     02CF  2AD1               	goto	u2361
  2356     02D0  2AD2               	goto	u2360
  2357     02D1                     u2361:
  2358     02D1  2AD3               	goto	l1608
  2359     02D2                     u2360:
  2360     02D2  2ACB               	goto	l1604
  2361     02D3                     l1608:
  2362     02D3  0833               	movf	___flmul@aexp,w
  2363     02D4  1903               	btfsc	3,2
  2364     02D5  2AD7               	goto	u2371
  2365     02D6  2AD8               	goto	u2370
  2366     02D7                     u2371:
  2367     02D7  2B09               	goto	l1618
  2368     02D8                     u2370:
  2369     02D8                     l1610:
  2370     02D8  3001               	movlw	1
  2371     02D9  07B9               	addwf	___flmul@prod,f
  2372     02DA  3000               	movlw	0
  2373     02DB  1803               	skipnc
  2374     02DC  3001               	movlw	1
  2375     02DD  07BA               	addwf	___flmul@prod+1,f
  2376     02DE  3000               	movlw	0
  2377     02DF  1803               	skipnc
  2378     02E0  3001               	movlw	1
  2379     02E1  07BB               	addwf	___flmul@prod+2,f
  2380     02E2  3000               	movlw	0
  2381     02E3  1803               	skipnc
  2382     02E4  3001               	movlw	1
  2383     02E5  07BC               	addwf	___flmul@prod+3,f
  2384     02E6                     l1612:
  2385     02E6  1C3C               	btfss	___flmul@prod+3,0
  2386     02E7  2AE9               	goto	u2381
  2387     02E8  2AEA               	goto	u2380
  2388     02E9                     u2381:
  2389     02E9  2B09               	goto	l1618
  2390     02EA                     u2380:
  2391     02EA                     l1614:
  2392     02EA  0839               	movf	___flmul@prod,w
  2393     02EB  00AD               	movwf	??___flmul
  2394     02EC  083A               	movf	___flmul@prod+1,w
  2395     02ED  00AE               	movwf	??___flmul+1
  2396     02EE  083B               	movf	___flmul@prod+2,w
  2397     02EF  00AF               	movwf	??___flmul+2
  2398     02F0  083C               	movf	___flmul@prod+3,w
  2399     02F1  00B0               	movwf	??___flmul+3
  2400     02F2  3001               	movlw	1
  2401     02F3  00B1               	movwf	??___flmul+4
  2402     02F4                     u2395:
  2403     02F4  0D30               	rlf	??___flmul+3,w
  2404     02F5  0CB0               	rrf	??___flmul+3,f
  2405     02F6  0CAF               	rrf	??___flmul+2,f
  2406     02F7  0CAE               	rrf	??___flmul+1,f
  2407     02F8  0CAD               	rrf	??___flmul,f
  2408     02F9                     u2390:
  2409     02F9  0BB1               	decfsz	??___flmul+4,f
  2410     02FA  2AF4               	goto	u2395
  2411     02FB  0830               	movf	??___flmul+3,w
  2412     02FC  00BC               	movwf	___flmul@prod+3
  2413     02FD  082F               	movf	??___flmul+2,w
  2414     02FE  00BB               	movwf	___flmul@prod+2
  2415     02FF  082E               	movf	??___flmul+1,w
  2416     0300  00BA               	movwf	___flmul@prod+1
  2417     0301  082D               	movf	??___flmul,w
  2418     0302  00B9               	movwf	___flmul@prod
  2419     0303                     l1616:
  2420     0303  3001               	movlw	1
  2421     0304  07BD               	addwf	___flmul@temp,f
  2422     0305  1803               	skipnc
  2423     0306  0ABE               	incf	___flmul@temp+1,f
  2424     0307  3000               	movlw	0
  2425     0308  07BE               	addwf	___flmul@temp+1,f
  2426     0309                     l1618:
  2427     0309  083E               	movf	___flmul@temp+1,w
  2428     030A  3A80               	xorlw	128
  2429     030B  00FF               	movwf	btemp+1
  2430     030C  3080               	movlw	128
  2431     030D  027F               	subwf	btemp+1,w
  2432     030E  1D03               	skipz
  2433     030F  2B12               	goto	u2405
  2434     0310  30FF               	movlw	255
  2435     0311  023D               	subwf	___flmul@temp,w
  2436     0312                     u2405:
  2437     0312  1C03               	skipc
  2438     0313  2B15               	goto	u2401
  2439     0314  2B16               	goto	u2400
  2440     0315                     u2401:
  2441     0315  2B21               	goto	l1622
  2442     0316                     u2400:
  2443     0316                     l1620:
  2444     0316  307F               	movlw	127
  2445     0317  1283               	bcf	3,5	;RP0=0, select bank0
  2446     0318  1303               	bcf	3,6	;RP1=0, select bank0
  2447     0319  00BC               	movwf	___flmul@prod+3
  2448     031A  3080               	movlw	128
  2449     031B  00BB               	movwf	___flmul@prod+2
  2450     031C  3000               	movlw	0
  2451     031D  00BA               	movwf	___flmul@prod+1
  2452     031E  3000               	movlw	0
  2453     031F  00B9               	movwf	___flmul@prod
  2454     0320  2B52               	goto	l551
  2455     0321                     l1622:
  2456     0321  1283               	bcf	3,5	;RP0=0, select bank0
  2457     0322  1303               	bcf	3,6	;RP1=0, select bank0
  2458     0323  083E               	movf	___flmul@temp+1,w
  2459     0324  3A80               	xorlw	128
  2460     0325  00FF               	movwf	btemp+1
  2461     0326  3080               	movlw	128
  2462     0327  027F               	subwf	btemp+1,w
  2463     0328  1D03               	skipz
  2464     0329  2B2C               	goto	u2415
  2465     032A  3001               	movlw	1
  2466     032B  023D               	subwf	___flmul@temp,w
  2467     032C                     u2415:
  2468     032C  1803               	skipnc
  2469     032D  2B2F               	goto	u2411
  2470     032E  2B30               	goto	u2410
  2471     032F                     u2411:
  2472     032F  2B3C               	goto	l1628
  2473     0330                     u2410:
  2474     0330                     l1624:
  2475     0330  3000               	movlw	0
  2476     0331  1283               	bcf	3,5	;RP0=0, select bank0
  2477     0332  1303               	bcf	3,6	;RP1=0, select bank0
  2478     0333  00BC               	movwf	___flmul@prod+3
  2479     0334  3000               	movlw	0
  2480     0335  00BB               	movwf	___flmul@prod+2
  2481     0336  3000               	movlw	0
  2482     0337  00BA               	movwf	___flmul@prod+1
  2483     0338  3000               	movlw	0
  2484     0339  00B9               	movwf	___flmul@prod
  2485     033A                     l1626:
  2486     033A  01B2               	clrf	___flmul@sign
  2487     033B  2B52               	goto	l551
  2488     033C                     l1628:
  2489     033C  1283               	bcf	3,5	;RP0=0, select bank0
  2490     033D  1303               	bcf	3,6	;RP1=0, select bank0
  2491     033E  083D               	movf	___flmul@temp,w
  2492     033F  00B8               	movwf	___flmul@bexp
  2493     0340  30FF               	movlw	255
  2494     0341  05B9               	andwf	___flmul@prod,f
  2495     0342  30FF               	movlw	255
  2496     0343  05BA               	andwf	___flmul@prod+1,f
  2497     0344  307F               	movlw	127
  2498     0345  05BB               	andwf	___flmul@prod+2,f
  2499     0346  3000               	movlw	0
  2500     0347  05BC               	andwf	___flmul@prod+3,f
  2501     0348                     l1630:
  2502     0348  1C38               	btfss	___flmul@bexp,0
  2503     0349  2B4B               	goto	u2421
  2504     034A  2B4C               	goto	u2420
  2505     034B                     u2421:
  2506     034B  2B4D               	goto	l1634
  2507     034C                     u2420:
  2508     034C                     l1632:
  2509     034C  17BB               	bsf	___flmul@prod+2,7
  2510     034D                     l1634:
  2511     034D  0838               	movf	___flmul@bexp,w
  2512     034E  00AD               	movwf	??___flmul
  2513     034F  1003               	clrc
  2514     0350  0C2D               	rrf	??___flmul,w
  2515     0351  00BC               	movwf	___flmul@prod+3
  2516     0352                     l551:
  2517     0352  0832               	movf	___flmul@sign,w
  2518     0353  04BC               	iorwf	___flmul@prod+3,f
  2519     0354                     l1636:
  2520     0354  083C               	movf	___flmul@prod+3,w
  2521     0355  00A8               	movwf	?___flmul+3
  2522     0356  083B               	movf	___flmul@prod+2,w
  2523     0357  00A7               	movwf	?___flmul+2
  2524     0358  083A               	movf	___flmul@prod+1,w
  2525     0359  00A6               	movwf	?___flmul+1
  2526     035A  0839               	movf	___flmul@prod,w
  2527     035B  00A5               	movwf	?___flmul
  2528     035C                     l539:
  2529     035C  0008               	return
  2530     035D                     __end_of___flmul:
  2531                           
  2532                           	psect	text5
  2533     07A3                     __ptext5:	
  2534 ;; *************** function __Umul8_16 *****************
  2535 ;; Defined at:
  2536 ;;		line 4 in file "/Applications/microchip/xc8/v3.00/pic/sources/c99/common/Umul8_16.c"
  2537 ;; Parameters:    Size  Location     Type
  2538 ;;  multiplier      1    wreg     unsigned char 
  2539 ;;  multiplicand    1    2[COMMON] unsigned char 
  2540 ;; Auto vars:     Size  Location     Type
  2541 ;;  multiplier      1    4[BANK0 ] unsigned char 
  2542 ;;  word_mpld       2    2[BANK0 ] unsigned short 
  2543 ;;  product         2    0[BANK0 ] unsigned short 
  2544 ;; Return value:  Size  Location     Type
  2545 ;;                  2    2[COMMON] unsigned int 
  2546 ;; Registers used:
  2547 ;;		wreg, status,2, status,0
  2548 ;; Tracked objects:
  2549 ;;		On entry : 0/0
  2550 ;;		On exit  : 0/0
  2551 ;;		Unchanged: 0/0
  2552 ;; Data sizes:     COMMON   BANK0   BANK1   BANK3   BANK2
  2553 ;;      Params:         2       0       0       0       0
  2554 ;;      Locals:         0       5       0       0       0
  2555 ;;      Temps:          2       0       0       0       0
  2556 ;;      Totals:         4       5       0       0       0
  2557 ;;Total ram usage:        9 bytes
  2558 ;; Hardware stack levels used: 1
  2559 ;; Hardware stack levels required when called: 1
  2560 ;; This function calls:
  2561 ;;		Nothing
  2562 ;; This function is called by:
  2563 ;;		___flmul
  2564 ;; This function uses a non-reentrant model
  2565 ;;
  2566                           
  2567     07A3                     __Umul8_16:	
  2568                           ;psect for function __Umul8_16
  2569                           
  2570                           
  2571                           ;incstack = 0
  2572                           ; Regs used in __Umul8_16: [wreg+status,2+status,0]
  2573                           ;__Umul8_16@multiplier stored from wreg
  2574     07A3  1283               	bcf	3,5	;RP0=0, select bank0
  2575     07A4  1303               	bcf	3,6	;RP1=0, select bank0
  2576     07A5  00A4               	movwf	__Umul8_16@multiplier
  2577     07A6                     l1484:
  2578     07A6  01A0               	clrf	__Umul8_16@product
  2579     07A7  01A1               	clrf	__Umul8_16@product+1
  2580     07A8                     l1486:
  2581     07A8  0872               	movf	__Umul8_16@multiplicand,w
  2582     07A9  00F4               	movwf	??__Umul8_16
  2583     07AA  01F5               	clrf	??__Umul8_16+1
  2584     07AB  0874               	movf	??__Umul8_16,w
  2585     07AC  00A2               	movwf	__Umul8_16@word_mpld
  2586     07AD  0875               	movf	??__Umul8_16+1,w
  2587     07AE  00A3               	movwf	__Umul8_16@word_mpld+1
  2588     07AF                     l1488:
  2589     07AF  1C24               	btfss	__Umul8_16@multiplier,0
  2590     07B0  2FB2               	goto	u2031
  2591     07B1  2FB3               	goto	u2030
  2592     07B2                     u2031:
  2593     07B2  2FB9               	goto	l558
  2594     07B3                     u2030:
  2595     07B3                     l1490:
  2596     07B3  0822               	movf	__Umul8_16@word_mpld,w
  2597     07B4  07A0               	addwf	__Umul8_16@product,f
  2598     07B5  1803               	skipnc
  2599     07B6  0AA1               	incf	__Umul8_16@product+1,f
  2600     07B7  0823               	movf	__Umul8_16@word_mpld+1,w
  2601     07B8  07A1               	addwf	__Umul8_16@product+1,f
  2602     07B9                     l558:
  2603     07B9  3001               	movlw	1
  2604     07BA                     u2045:
  2605     07BA  1003               	clrc
  2606     07BB  0DA2               	rlf	__Umul8_16@word_mpld,f
  2607     07BC  0DA3               	rlf	__Umul8_16@word_mpld+1,f
  2608     07BD  3EFF               	addlw	-1
  2609     07BE  1D03               	skipz
  2610     07BF  2FBA               	goto	u2045
  2611     07C0  1003               	clrc
  2612     07C1  0CA4               	rrf	__Umul8_16@multiplier,f
  2613     07C2                     l1492:
  2614     07C2  0824               	movf	__Umul8_16@multiplier,w
  2615     07C3  1D03               	btfss	3,2
  2616     07C4  2FC6               	goto	u2051
  2617     07C5  2FC7               	goto	u2050
  2618     07C6                     u2051:
  2619     07C6  2FAF               	goto	l1488
  2620     07C7                     u2050:
  2621     07C7                     l1494:
  2622     07C7  0821               	movf	__Umul8_16@product+1,w
  2623     07C8  00F3               	movwf	?__Umul8_16+1
  2624     07C9  0820               	movf	__Umul8_16@product,w
  2625     07CA  00F2               	movwf	?__Umul8_16
  2626     07CB                     l560:
  2627     07CB  0008               	return
  2628     07CC                     __end_of__Umul8_16:
  2629                           
  2630                           	psect	text6
  2631     035D                     __ptext6:	
  2632 ;; *************** function ___fldiv *****************
  2633 ;; Defined at:
  2634 ;;		line 8 in file "/Applications/microchip/xc8/v3.00/pic/sources/c99/common/sprcdiv.c"
  2635 ;; Parameters:    Size  Location     Type
  2636 ;;  a               4   31[BANK0 ] unsigned int 
  2637 ;;  b               4   35[BANK0 ] unsigned int 
  2638 ;; Auto vars:     Size  Location     Type
  2639 ;;  grs             4   51[BANK0 ] unsigned long 
  2640 ;;  rem             4   44[BANK0 ] unsigned long 
  2641 ;;  new_exp         2   49[BANK0 ] short 
  2642 ;;  aexp            1   56[BANK0 ] unsigned char 
  2643 ;;  bexp            1   55[BANK0 ] unsigned char 
  2644 ;;  sign            1   48[BANK0 ] unsigned char 
  2645 ;; Return value:  Size  Location     Type
  2646 ;;                  4   31[BANK0 ] unsigned char 
  2647 ;; Registers used:
  2648 ;;		wreg, status,2, status,0, btemp+1
  2649 ;; Tracked objects:
  2650 ;;		On entry : 0/0
  2651 ;;		On exit  : 0/0
  2652 ;;		Unchanged: 0/0
  2653 ;; Data sizes:     COMMON   BANK0   BANK1   BANK3   BANK2
  2654 ;;      Params:         0       8       0       0       0
  2655 ;;      Locals:         0      13       0       0       0
  2656 ;;      Temps:          0       5       0       0       0
  2657 ;;      Totals:         0      26       0       0       0
  2658 ;;Total ram usage:       26 bytes
  2659 ;; Hardware stack levels used: 1
  2660 ;; Hardware stack levels required when called: 1
  2661 ;; This function calls:
  2662 ;;		Nothing
  2663 ;; This function is called by:
  2664 ;;		_my_delay_ms
  2665 ;; This function uses a non-reentrant model
  2666 ;;
  2667                           
  2668     035D                     ___fldiv:	
  2669                           ;psect for function ___fldiv
  2670                           
  2671     035D                     l1092:	
  2672                           ;incstack = 0
  2673                           ; Regs used in ___fldiv: [wreg+status,2+status,0+btemp+1]
  2674                           
  2675     035D  1283               	bcf	3,5	;RP0=0, select bank0
  2676     035E  1303               	bcf	3,6	;RP1=0, select bank0
  2677     035F  0846               	movf	___fldiv@b+3,w
  2678     0360  00D0               	movwf	___fldiv@sign
  2679     0361                     l1094:
  2680     0361  3080               	movlw	128
  2681     0362  05D0               	andwf	___fldiv@sign,f
  2682     0363                     l1096:
  2683     0363  0846               	movf	___fldiv@b+3,w
  2684     0364  00C7               	movwf	??___fldiv
  2685     0365  0747               	addwf	??___fldiv,w
  2686     0366  00D7               	movwf	___fldiv@bexp
  2687     0367                     l1098:
  2688     0367  1FC5               	btfss	___fldiv@b+2,7
  2689     0368  2B6A               	goto	u1151
  2690     0369  2B6B               	goto	u1150
  2691     036A                     u1151:
  2692     036A  2B6C               	goto	l1102
  2693     036B                     u1150:
  2694     036B                     l1100:
  2695     036B  1457               	bsf	___fldiv@bexp,0
  2696     036C                     l1102:
  2697     036C  0857               	movf	___fldiv@bexp,w
  2698     036D  1903               	btfsc	3,2
  2699     036E  2B70               	goto	u1161
  2700     036F  2B71               	goto	u1160
  2701     0370                     u1161:
  2702     0370  2B81               	goto	l1112
  2703     0371                     u1160:
  2704     0371                     l1104:
  2705     0371  0A57               	incf	___fldiv@bexp,w
  2706     0372  1D03               	btfss	3,2
  2707     0373  2B75               	goto	u1171
  2708     0374  2B76               	goto	u1170
  2709     0375                     u1171:
  2710     0375  2B7E               	goto	l1108
  2711     0376                     u1170:
  2712     0376                     l1106:
  2713     0376  3000               	movlw	0
  2714     0377  00C6               	movwf	___fldiv@b+3
  2715     0378  3000               	movlw	0
  2716     0379  00C5               	movwf	___fldiv@b+2
  2717     037A  3000               	movlw	0
  2718     037B  00C4               	movwf	___fldiv@b+1
  2719     037C  3000               	movlw	0
  2720     037D  00C3               	movwf	___fldiv@b
  2721     037E                     l1108:
  2722     037E  17C5               	bsf	___fldiv@b+2,7
  2723     037F                     l1110:
  2724     037F  01C6               	clrf	___fldiv@b+3
  2725     0380  2B89               	goto	l1114
  2726     0381                     l1112:
  2727     0381  3000               	movlw	0
  2728     0382  00C6               	movwf	___fldiv@b+3
  2729     0383  3000               	movlw	0
  2730     0384  00C5               	movwf	___fldiv@b+2
  2731     0385  3000               	movlw	0
  2732     0386  00C4               	movwf	___fldiv@b+1
  2733     0387  3000               	movlw	0
  2734     0388  00C3               	movwf	___fldiv@b
  2735     0389                     l1114:
  2736     0389  0842               	movf	___fldiv@a+3,w
  2737     038A  3980               	andlw	128
  2738     038B  06D0               	xorwf	___fldiv@sign,f
  2739     038C                     l1116:
  2740     038C  0842               	movf	___fldiv@a+3,w
  2741     038D  00C7               	movwf	??___fldiv
  2742     038E  0747               	addwf	??___fldiv,w
  2743     038F  00D8               	movwf	___fldiv@aexp
  2744     0390                     l1118:
  2745     0390  1FC1               	btfss	___fldiv@a+2,7
  2746     0391  2B93               	goto	u1181
  2747     0392  2B94               	goto	u1180
  2748     0393                     u1181:
  2749     0393  2B95               	goto	l1122
  2750     0394                     u1180:
  2751     0394                     l1120:
  2752     0394  1458               	bsf	___fldiv@aexp,0
  2753     0395                     l1122:
  2754     0395  0858               	movf	___fldiv@aexp,w
  2755     0396  1903               	btfsc	3,2
  2756     0397  2B99               	goto	u1191
  2757     0398  2B9A               	goto	u1190
  2758     0399                     u1191:
  2759     0399  2BAA               	goto	l1132
  2760     039A                     u1190:
  2761     039A                     l1124:
  2762     039A  0A58               	incf	___fldiv@aexp,w
  2763     039B  1D03               	btfss	3,2
  2764     039C  2B9E               	goto	u1201
  2765     039D  2B9F               	goto	u1200
  2766     039E                     u1201:
  2767     039E  2BA7               	goto	l1128
  2768     039F                     u1200:
  2769     039F                     l1126:
  2770     039F  3000               	movlw	0
  2771     03A0  00C2               	movwf	___fldiv@a+3
  2772     03A1  3000               	movlw	0
  2773     03A2  00C1               	movwf	___fldiv@a+2
  2774     03A3  3000               	movlw	0
  2775     03A4  00C0               	movwf	___fldiv@a+1
  2776     03A5  3000               	movlw	0
  2777     03A6  00BF               	movwf	___fldiv@a
  2778     03A7                     l1128:
  2779     03A7  17C1               	bsf	___fldiv@a+2,7
  2780     03A8                     l1130:
  2781     03A8  01C2               	clrf	___fldiv@a+3
  2782     03A9  2BB2               	goto	l499
  2783     03AA                     l1132:
  2784     03AA  3000               	movlw	0
  2785     03AB  00C2               	movwf	___fldiv@a+3
  2786     03AC  3000               	movlw	0
  2787     03AD  00C1               	movwf	___fldiv@a+2
  2788     03AE  3000               	movlw	0
  2789     03AF  00C0               	movwf	___fldiv@a+1
  2790     03B0  3000               	movlw	0
  2791     03B1  00BF               	movwf	___fldiv@a
  2792     03B2                     l499:
  2793     03B2  0842               	movf	___fldiv@a+3,w
  2794     03B3  0441               	iorwf	___fldiv@a+2,w
  2795     03B4  0440               	iorwf	___fldiv@a+1,w
  2796     03B5  043F               	iorwf	___fldiv@a,w
  2797     03B6  1D03               	skipz
  2798     03B7  2BB9               	goto	u1211
  2799     03B8  2BBA               	goto	u1210
  2800     03B9                     u1211:
  2801     03B9  2BD1               	goto	l1142
  2802     03BA                     u1210:
  2803     03BA                     l1134:
  2804     03BA  3000               	movlw	0
  2805     03BB  00C6               	movwf	___fldiv@b+3
  2806     03BC  3000               	movlw	0
  2807     03BD  00C5               	movwf	___fldiv@b+2
  2808     03BE  3000               	movlw	0
  2809     03BF  00C4               	movwf	___fldiv@b+1
  2810     03C0  3000               	movlw	0
  2811     03C1  00C3               	movwf	___fldiv@b
  2812     03C2  3080               	movlw	128
  2813     03C3  04C5               	iorwf	___fldiv@b+2,f
  2814     03C4  307F               	movlw	127
  2815     03C5  04C6               	iorwf	___fldiv@b+3,f
  2816     03C6                     l1136:
  2817     03C6  0850               	movf	___fldiv@sign,w
  2818     03C7  04C6               	iorwf	___fldiv@b+3,f
  2819     03C8                     l1138:
  2820     03C8  0846               	movf	___fldiv@b+3,w
  2821     03C9  00C2               	movwf	?___fldiv+3
  2822     03CA  0845               	movf	___fldiv@b+2,w
  2823     03CB  00C1               	movwf	?___fldiv+2
  2824     03CC  0844               	movf	___fldiv@b+1,w
  2825     03CD  00C0               	movwf	?___fldiv+1
  2826     03CE  0843               	movf	___fldiv@b,w
  2827     03CF  00BF               	movwf	?___fldiv
  2828     03D0  2D26               	goto	l501
  2829     03D1                     l1142:
  2830     03D1  0857               	movf	___fldiv@bexp,w
  2831     03D2  1D03               	btfss	3,2
  2832     03D3  2BD5               	goto	u1221
  2833     03D4  2BD6               	goto	u1220
  2834     03D5                     u1221:
  2835     03D5  2BDF               	goto	l1148
  2836     03D6                     u1220:
  2837     03D6                     l1144:
  2838     03D6  3000               	movlw	0
  2839     03D7  00C2               	movwf	?___fldiv+3
  2840     03D8  3000               	movlw	0
  2841     03D9  00C1               	movwf	?___fldiv+2
  2842     03DA  3000               	movlw	0
  2843     03DB  00C0               	movwf	?___fldiv+1
  2844     03DC  3000               	movlw	0
  2845     03DD  00BF               	movwf	?___fldiv
  2846     03DE  2D26               	goto	l501
  2847     03DF                     l1148:
  2848     03DF  0857               	movf	___fldiv@bexp,w
  2849     03E0  00C7               	movwf	??___fldiv
  2850     03E1  01C8               	clrf	??___fldiv+1
  2851     03E2  0848               	movf	??___fldiv+1,w
  2852     03E3  00CA               	movwf	??___fldiv+3
  2853     03E4  0858               	movf	___fldiv@aexp,w
  2854     03E5  0247               	subwf	??___fldiv,w
  2855     03E6  00C9               	movwf	??___fldiv+2
  2856     03E7  1C03               	skipc
  2857     03E8  03CA               	decf	??___fldiv+3,f
  2858     03E9  0849               	movf	??___fldiv+2,w
  2859     03EA  3E7F               	addlw	127
  2860     03EB  00D1               	movwf	___fldiv@new_exp
  2861     03EC  084A               	movf	??___fldiv+3,w
  2862     03ED  1803               	skipnc
  2863     03EE  3E01               	addlw	1
  2864     03EF  3E00               	addlw	0
  2865     03F0  00D2               	movwf	___fldiv@new_exp+1
  2866     03F1                     l1150:
  2867     03F1  0846               	movf	___fldiv@b+3,w
  2868     03F2  00CF               	movwf	___fldiv@rem+3
  2869     03F3  0845               	movf	___fldiv@b+2,w
  2870     03F4  00CE               	movwf	___fldiv@rem+2
  2871     03F5  0844               	movf	___fldiv@b+1,w
  2872     03F6  00CD               	movwf	___fldiv@rem+1
  2873     03F7  0843               	movf	___fldiv@b,w
  2874     03F8  00CC               	movwf	___fldiv@rem
  2875     03F9                     l1152:
  2876     03F9  3000               	movlw	0
  2877     03FA  00C6               	movwf	___fldiv@b+3
  2878     03FB  3000               	movlw	0
  2879     03FC  00C5               	movwf	___fldiv@b+2
  2880     03FD  3000               	movlw	0
  2881     03FE  00C4               	movwf	___fldiv@b+1
  2882     03FF  3000               	movlw	0
  2883     0400  00C3               	movwf	___fldiv@b
  2884     0401                     l1154:
  2885     0401  3000               	movlw	0
  2886     0402  00D6               	movwf	___fldiv@grs+3
  2887     0403  3000               	movlw	0
  2888     0404  00D5               	movwf	___fldiv@grs+2
  2889     0405  3000               	movlw	0
  2890     0406  00D4               	movwf	___fldiv@grs+1
  2891     0407  3000               	movlw	0
  2892     0408  00D3               	movwf	___fldiv@grs
  2893     0409                     l1156:
  2894     0409  01D8               	clrf	___fldiv@aexp
  2895     040A  2C53               	goto	l1176
  2896     040B                     l1158:
  2897     040B  0858               	movf	___fldiv@aexp,w
  2898     040C  1903               	btfsc	3,2
  2899     040D  2C0F               	goto	u1231
  2900     040E  2C10               	goto	u1230
  2901     040F                     u1231:
  2902     040F  2C30               	goto	l1168
  2903     0410                     u1230:
  2904     0410                     l1160:
  2905     0410  3001               	movlw	1
  2906     0411  00C7               	movwf	??___fldiv
  2907     0412                     u1245:
  2908     0412  1003               	clrc
  2909     0413  0DCC               	rlf	___fldiv@rem,f
  2910     0414  0DCD               	rlf	___fldiv@rem+1,f
  2911     0415  0DCE               	rlf	___fldiv@rem+2,f
  2912     0416  0DCF               	rlf	___fldiv@rem+3,f
  2913     0417  0BC7               	decfsz	??___fldiv,f
  2914     0418  2C12               	goto	u1245
  2915     0419  3001               	movlw	1
  2916     041A  00C7               	movwf	??___fldiv
  2917     041B                     u1255:
  2918     041B  1003               	clrc
  2919     041C  0DC3               	rlf	___fldiv@b,f
  2920     041D  0DC4               	rlf	___fldiv@b+1,f
  2921     041E  0DC5               	rlf	___fldiv@b+2,f
  2922     041F  0DC6               	rlf	___fldiv@b+3,f
  2923     0420  0BC7               	decfsz	??___fldiv,f
  2924     0421  2C1B               	goto	u1255
  2925     0422                     l1162:
  2926     0422  1FD6               	btfss	___fldiv@grs+3,7
  2927     0423  2C25               	goto	u1261
  2928     0424  2C26               	goto	u1260
  2929     0425                     u1261:
  2930     0425  2C27               	goto	l1166
  2931     0426                     u1260:
  2932     0426                     l1164:
  2933     0426  1443               	bsf	___fldiv@b,0
  2934     0427                     l1166:
  2935     0427  3001               	movlw	1
  2936     0428  00C7               	movwf	??___fldiv
  2937     0429                     u1275:
  2938     0429  1003               	clrc
  2939     042A  0DD3               	rlf	___fldiv@grs,f
  2940     042B  0DD4               	rlf	___fldiv@grs+1,f
  2941     042C  0DD5               	rlf	___fldiv@grs+2,f
  2942     042D  0DD6               	rlf	___fldiv@grs+3,f
  2943     042E  0BC7               	decfsz	??___fldiv,f
  2944     042F  2C29               	goto	u1275
  2945     0430                     l1168:
  2946     0430  0842               	movf	___fldiv@a+3,w
  2947     0431  024F               	subwf	___fldiv@rem+3,w
  2948     0432  1D03               	skipz
  2949     0433  2C3E               	goto	u1285
  2950     0434  0841               	movf	___fldiv@a+2,w
  2951     0435  024E               	subwf	___fldiv@rem+2,w
  2952     0436  1D03               	skipz
  2953     0437  2C3E               	goto	u1285
  2954     0438  0840               	movf	___fldiv@a+1,w
  2955     0439  024D               	subwf	___fldiv@rem+1,w
  2956     043A  1D03               	skipz
  2957     043B  2C3E               	goto	u1285
  2958     043C  083F               	movf	___fldiv@a,w
  2959     043D  024C               	subwf	___fldiv@rem,w
  2960     043E                     u1285:
  2961     043E  1C03               	skipc
  2962     043F  2C41               	goto	u1281
  2963     0440  2C42               	goto	u1280
  2964     0441                     u1281:
  2965     0441  2C51               	goto	l1174
  2966     0442                     u1280:
  2967     0442                     l1170:
  2968     0442  1756               	bsf	___fldiv@grs+3,6
  2969     0443                     l1172:
  2970     0443  083F               	movf	___fldiv@a,w
  2971     0444  02CC               	subwf	___fldiv@rem,f
  2972     0445  0840               	movf	___fldiv@a+1,w
  2973     0446  1C03               	skipc
  2974     0447  0F40               	incfsz	___fldiv@a+1,w
  2975     0448  02CD               	subwf	___fldiv@rem+1,f
  2976     0449  0841               	movf	___fldiv@a+2,w
  2977     044A  1C03               	skipc
  2978     044B  0F41               	incfsz	___fldiv@a+2,w
  2979     044C  02CE               	subwf	___fldiv@rem+2,f
  2980     044D  0842               	movf	___fldiv@a+3,w
  2981     044E  1C03               	skipc
  2982     044F  0F42               	incfsz	___fldiv@a+3,w
  2983     0450  02CF               	subwf	___fldiv@rem+3,f
  2984     0451                     l1174:
  2985     0451  3001               	movlw	1
  2986     0452  07D8               	addwf	___fldiv@aexp,f
  2987     0453                     l1176:
  2988     0453  301A               	movlw	26
  2989     0454  0258               	subwf	___fldiv@aexp,w
  2990     0455  1C03               	skipc
  2991     0456  2C58               	goto	u1291
  2992     0457  2C59               	goto	u1290
  2993     0458                     u1291:
  2994     0458  2C0B               	goto	l1158
  2995     0459                     u1290:
  2996     0459                     l1178:
  2997     0459  084F               	movf	___fldiv@rem+3,w
  2998     045A  044E               	iorwf	___fldiv@rem+2,w
  2999     045B  044D               	iorwf	___fldiv@rem+1,w
  3000     045C  044C               	iorwf	___fldiv@rem,w
  3001     045D  1903               	skipnz
  3002     045E  2C60               	goto	u1301
  3003     045F  2C61               	goto	u1300
  3004     0460                     u1301:
  3005     0460  2C80               	goto	l1192
  3006     0461                     u1300:
  3007     0461                     l1180:
  3008     0461  1453               	bsf	___fldiv@grs,0
  3009     0462  2C80               	goto	l1192
  3010     0463                     l1182:
  3011     0463  3001               	movlw	1
  3012     0464  00C7               	movwf	??___fldiv
  3013     0465                     u1315:
  3014     0465  1003               	clrc
  3015     0466  0DC3               	rlf	___fldiv@b,f
  3016     0467  0DC4               	rlf	___fldiv@b+1,f
  3017     0468  0DC5               	rlf	___fldiv@b+2,f
  3018     0469  0DC6               	rlf	___fldiv@b+3,f
  3019     046A  0BC7               	decfsz	??___fldiv,f
  3020     046B  2C65               	goto	u1315
  3021     046C                     l1184:
  3022     046C  1FD6               	btfss	___fldiv@grs+3,7
  3023     046D  2C6F               	goto	u1321
  3024     046E  2C70               	goto	u1320
  3025     046F                     u1321:
  3026     046F  2C71               	goto	l1188
  3027     0470                     u1320:
  3028     0470                     l1186:
  3029     0470  1443               	bsf	___fldiv@b,0
  3030     0471                     l1188:
  3031     0471  3001               	movlw	1
  3032     0472  00C7               	movwf	??___fldiv
  3033     0473                     u1335:
  3034     0473  1003               	clrc
  3035     0474  0DD3               	rlf	___fldiv@grs,f
  3036     0475  0DD4               	rlf	___fldiv@grs+1,f
  3037     0476  0DD5               	rlf	___fldiv@grs+2,f
  3038     0477  0DD6               	rlf	___fldiv@grs+3,f
  3039     0478  0BC7               	decfsz	??___fldiv,f
  3040     0479  2C73               	goto	u1335
  3041     047A                     l1190:
  3042     047A  30FF               	movlw	255
  3043     047B  07D1               	addwf	___fldiv@new_exp,f
  3044     047C  1803               	skipnc
  3045     047D  0AD2               	incf	___fldiv@new_exp+1,f
  3046     047E  30FF               	movlw	255
  3047     047F  07D2               	addwf	___fldiv@new_exp+1,f
  3048     0480                     l1192:
  3049     0480  1FC5               	btfss	___fldiv@b+2,7
  3050     0481  2C83               	goto	u1341
  3051     0482  2C84               	goto	u1340
  3052     0483                     u1341:
  3053     0483  2C63               	goto	l1182
  3054     0484                     u1340:
  3055     0484                     l1194:
  3056     0484  01D8               	clrf	___fldiv@aexp
  3057     0485                     l1196:
  3058     0485  1FD6               	btfss	___fldiv@grs+3,7
  3059     0486  2C88               	goto	u1351
  3060     0487  2C89               	goto	u1350
  3061     0488                     u1351:
  3062     0488  2CA5               	goto	l1204
  3063     0489                     u1350:
  3064     0489                     l1198:
  3065     0489  30FF               	movlw	255
  3066     048A  0553               	andwf	___fldiv@grs,w
  3067     048B  00C7               	movwf	??___fldiv
  3068     048C  30FF               	movlw	255
  3069     048D  0554               	andwf	___fldiv@grs+1,w
  3070     048E  00C8               	movwf	??___fldiv+1
  3071     048F  30FF               	movlw	255
  3072     0490  0555               	andwf	___fldiv@grs+2,w
  3073     0491  00C9               	movwf	??___fldiv+2
  3074     0492  307F               	movlw	127
  3075     0493  0556               	andwf	___fldiv@grs+3,w
  3076     0494  00CA               	movwf	??___fldiv+3
  3077     0495  084A               	movf	??___fldiv+3,w
  3078     0496  0449               	iorwf	??___fldiv+2,w
  3079     0497  0448               	iorwf	??___fldiv+1,w
  3080     0498  0447               	iorwf	??___fldiv,w
  3081     0499  1903               	skipnz
  3082     049A  2C9C               	goto	u1361
  3083     049B  2C9D               	goto	u1360
  3084     049C                     u1361:
  3085     049C  2CA0               	goto	l515
  3086     049D                     u1360:
  3087     049D                     l1200:
  3088     049D  3001               	movlw	1
  3089     049E  00D8               	movwf	___fldiv@aexp
  3090     049F  2CA5               	goto	l1204
  3091     04A0                     l515:
  3092     04A0  1C43               	btfss	___fldiv@b,0
  3093     04A1  2CA3               	goto	u1371
  3094     04A2  2CA4               	goto	u1370
  3095     04A3                     u1371:
  3096     04A3  2CA5               	goto	l1204
  3097     04A4                     u1370:
  3098     04A4  2C9D               	goto	l1200
  3099     04A5                     l1204:
  3100     04A5  0858               	movf	___fldiv@aexp,w
  3101     04A6  1903               	btfsc	3,2
  3102     04A7  2CA9               	goto	u1381
  3103     04A8  2CAA               	goto	u1380
  3104     04A9                     u1381:
  3105     04A9  2CDB               	goto	l1214
  3106     04AA                     u1380:
  3107     04AA                     l1206:
  3108     04AA  3001               	movlw	1
  3109     04AB  07C3               	addwf	___fldiv@b,f
  3110     04AC  3000               	movlw	0
  3111     04AD  1803               	skipnc
  3112     04AE  3001               	movlw	1
  3113     04AF  07C4               	addwf	___fldiv@b+1,f
  3114     04B0  3000               	movlw	0
  3115     04B1  1803               	skipnc
  3116     04B2  3001               	movlw	1
  3117     04B3  07C5               	addwf	___fldiv@b+2,f
  3118     04B4  3000               	movlw	0
  3119     04B5  1803               	skipnc
  3120     04B6  3001               	movlw	1
  3121     04B7  07C6               	addwf	___fldiv@b+3,f
  3122     04B8                     l1208:
  3123     04B8  1C46               	btfss	___fldiv@b+3,0
  3124     04B9  2CBB               	goto	u1391
  3125     04BA  2CBC               	goto	u1390
  3126     04BB                     u1391:
  3127     04BB  2CDB               	goto	l1214
  3128     04BC                     u1390:
  3129     04BC                     l1210:
  3130     04BC  0843               	movf	___fldiv@b,w
  3131     04BD  00C7               	movwf	??___fldiv
  3132     04BE  0844               	movf	___fldiv@b+1,w
  3133     04BF  00C8               	movwf	??___fldiv+1
  3134     04C0  0845               	movf	___fldiv@b+2,w
  3135     04C1  00C9               	movwf	??___fldiv+2
  3136     04C2  0846               	movf	___fldiv@b+3,w
  3137     04C3  00CA               	movwf	??___fldiv+3
  3138     04C4  3001               	movlw	1
  3139     04C5  00CB               	movwf	??___fldiv+4
  3140     04C6                     u1405:
  3141     04C6  0D4A               	rlf	??___fldiv+3,w
  3142     04C7  0CCA               	rrf	??___fldiv+3,f
  3143     04C8  0CC9               	rrf	??___fldiv+2,f
  3144     04C9  0CC8               	rrf	??___fldiv+1,f
  3145     04CA  0CC7               	rrf	??___fldiv,f
  3146     04CB                     u1400:
  3147     04CB  0BCB               	decfsz	??___fldiv+4,f
  3148     04CC  2CC6               	goto	u1405
  3149     04CD  084A               	movf	??___fldiv+3,w
  3150     04CE  00C6               	movwf	___fldiv@b+3
  3151     04CF  0849               	movf	??___fldiv+2,w
  3152     04D0  00C5               	movwf	___fldiv@b+2
  3153     04D1  0848               	movf	??___fldiv+1,w
  3154     04D2  00C4               	movwf	___fldiv@b+1
  3155     04D3  0847               	movf	??___fldiv,w
  3156     04D4  00C3               	movwf	___fldiv@b
  3157     04D5                     l1212:
  3158     04D5  3001               	movlw	1
  3159     04D6  07D1               	addwf	___fldiv@new_exp,f
  3160     04D7  1803               	skipnc
  3161     04D8  0AD2               	incf	___fldiv@new_exp+1,f
  3162     04D9  3000               	movlw	0
  3163     04DA  07D2               	addwf	___fldiv@new_exp+1,f
  3164     04DB                     l1214:
  3165     04DB  0852               	movf	___fldiv@new_exp+1,w
  3166     04DC  3A80               	xorlw	128
  3167     04DD  00FF               	movwf	btemp+1
  3168     04DE  3080               	movlw	128
  3169     04DF  027F               	subwf	btemp+1,w
  3170     04E0  1D03               	skipz
  3171     04E1  2CE4               	goto	u1415
  3172     04E2  30FF               	movlw	255
  3173     04E3  0251               	subwf	___fldiv@new_exp,w
  3174     04E4                     u1415:
  3175     04E4  1C03               	skipc
  3176     04E5  2CE7               	goto	u1411
  3177     04E6  2CE8               	goto	u1410
  3178     04E7                     u1411:
  3179     04E7  2CF6               	goto	l1218
  3180     04E8                     u1410:
  3181     04E8                     l1216:
  3182     04E8  30FF               	movlw	255
  3183     04E9  1283               	bcf	3,5	;RP0=0, select bank0
  3184     04EA  1303               	bcf	3,6	;RP1=0, select bank0
  3185     04EB  00D1               	movwf	___fldiv@new_exp
  3186     04EC  3000               	movlw	0
  3187     04ED  00D2               	movwf	___fldiv@new_exp+1
  3188     04EE  3000               	movlw	0
  3189     04EF  00C6               	movwf	___fldiv@b+3
  3190     04F0  3000               	movlw	0
  3191     04F1  00C5               	movwf	___fldiv@b+2
  3192     04F2  3000               	movlw	0
  3193     04F3  00C4               	movwf	___fldiv@b+1
  3194     04F4  3000               	movlw	0
  3195     04F5  00C3               	movwf	___fldiv@b
  3196     04F6                     l1218:
  3197     04F6  1283               	bcf	3,5	;RP0=0, select bank0
  3198     04F7  1303               	bcf	3,6	;RP1=0, select bank0
  3199     04F8  0852               	movf	___fldiv@new_exp+1,w
  3200     04F9  3A80               	xorlw	128
  3201     04FA  00FF               	movwf	btemp+1
  3202     04FB  3080               	movlw	128
  3203     04FC  027F               	subwf	btemp+1,w
  3204     04FD  1D03               	skipz
  3205     04FE  2D01               	goto	u1425
  3206     04FF  3001               	movlw	1
  3207     0500  0251               	subwf	___fldiv@new_exp,w
  3208     0501                     u1425:
  3209     0501  1803               	skipnc
  3210     0502  2D04               	goto	u1421
  3211     0503  2D05               	goto	u1420
  3212     0504                     u1421:
  3213     0504  2D12               	goto	l521
  3214     0505                     u1420:
  3215     0505                     l1220:
  3216     0505  1283               	bcf	3,5	;RP0=0, select bank0
  3217     0506  1303               	bcf	3,6	;RP1=0, select bank0
  3218     0507  01D1               	clrf	___fldiv@new_exp
  3219     0508  01D2               	clrf	___fldiv@new_exp+1
  3220     0509                     l1222:
  3221     0509  3000               	movlw	0
  3222     050A  00C6               	movwf	___fldiv@b+3
  3223     050B  3000               	movlw	0
  3224     050C  00C5               	movwf	___fldiv@b+2
  3225     050D  3000               	movlw	0
  3226     050E  00C4               	movwf	___fldiv@b+1
  3227     050F  3000               	movlw	0
  3228     0510  00C3               	movwf	___fldiv@b
  3229     0511                     l1224:
  3230     0511  01D0               	clrf	___fldiv@sign
  3231     0512                     l521:
  3232     0512  1283               	bcf	3,5	;RP0=0, select bank0
  3233     0513  1303               	bcf	3,6	;RP1=0, select bank0
  3234     0514  0851               	movf	___fldiv@new_exp,w
  3235     0515  00D7               	movwf	___fldiv@bexp
  3236     0516                     l1226:
  3237     0516  1C57               	btfss	___fldiv@bexp,0
  3238     0517  2D19               	goto	u1431
  3239     0518  2D1A               	goto	u1430
  3240     0519                     u1431:
  3241     0519  2D1C               	goto	l1230
  3242     051A                     u1430:
  3243     051A                     l1228:
  3244     051A  17C5               	bsf	___fldiv@b+2,7
  3245     051B  2D1E               	goto	l523
  3246     051C                     l1230:
  3247     051C  307F               	movlw	127
  3248     051D  05C5               	andwf	___fldiv@b+2,f
  3249     051E                     l523:
  3250     051E  0857               	movf	___fldiv@bexp,w
  3251     051F  00C7               	movwf	??___fldiv
  3252     0520  1003               	clrc
  3253     0521  0C47               	rrf	??___fldiv,w
  3254     0522  00C6               	movwf	___fldiv@b+3
  3255     0523  0850               	movf	___fldiv@sign,w
  3256     0524  04C6               	iorwf	___fldiv@b+3,f
  3257     0525  2BC8               	goto	l1138
  3258     0526                     l501:
  3259     0526  0008               	return
  3260     0527                     __end_of___fldiv:
  3261                           
  3262                           	psect	text7
  3263     07CC                     __ptext7:	
  3264 ;; *************** function _ISR *****************
  3265 ;; Defined at:
  3266 ;;		line 46 in file "main.c"
  3267 ;; Parameters:    Size  Location     Type
  3268 ;;		None
  3269 ;; Auto vars:     Size  Location     Type
  3270 ;;		None
  3271 ;; Return value:  Size  Location     Type
  3272 ;;                  1    wreg      void 
  3273 ;; Registers used:
  3274 ;;		wreg, status,2
  3275 ;; Tracked objects:
  3276 ;;		On entry : 0/0
  3277 ;;		On exit  : 0/0
  3278 ;;		Unchanged: 0/0
  3279 ;; Data sizes:     COMMON   BANK0   BANK1   BANK3   BANK2
  3280 ;;      Params:         0       0       0       0       0
  3281 ;;      Locals:         0       0       0       0       0
  3282 ;;      Temps:          2       0       0       0       0
  3283 ;;      Totals:         2       0       0       0       0
  3284 ;;Total ram usage:        2 bytes
  3285 ;; Hardware stack levels used: 1
  3286 ;; This function calls:
  3287 ;;		Nothing
  3288 ;; This function is called by:
  3289 ;;		Interrupt level 1
  3290 ;; This function uses a non-reentrant model
  3291 ;;
  3292                           
  3293     07CC                     _ISR:	
  3294                           ;psect for function _ISR
  3295                           
  3296     07CC                     i1l1478:
  3297                           
  3298                           ;main.c: 47:     overflow_counts++;
  3299     07CC  3001               	movlw	1
  3300     07CD  1683               	bsf	3,5	;RP0=1, select bank1
  3301     07CE  1303               	bcf	3,6	;RP1=0, select bank1
  3302     07CF  07B4               	addwf	_overflow_counts^(0+128),f
  3303     07D0  3000               	movlw	0
  3304     07D1  1803               	skipnc
  3305     07D2  3001               	movlw	1
  3306     07D3  07B5               	addwf	(_overflow_counts+1)^(0+128),f
  3307     07D4  3000               	movlw	0
  3308     07D5  1803               	skipnc
  3309     07D6  3001               	movlw	1
  3310     07D7  07B6               	addwf	(_overflow_counts+2)^(0+128),f
  3311     07D8  3000               	movlw	0
  3312     07D9  1803               	skipnc
  3313     07DA  3001               	movlw	1
  3314     07DB  07B7               	addwf	(_overflow_counts+3)^(0+128),f
  3315     07DC                     i1l1480:
  3316                           
  3317                           ;main.c: 49:     TMR0 = 0;
  3318     07DC  1283               	bcf	3,5	;RP0=0, select bank0
  3319     07DD  1303               	bcf	3,6	;RP1=0, select bank0
  3320     07DE  0181               	clrf	1	;volatile
  3321     07DF                     i1l1482:
  3322                           
  3323                           ;main.c: 51:     INTCON = 0x20;
  3324     07DF  3020               	movlw	32
  3325     07E0  008B               	movwf	11	;volatile
  3326     07E1                     i1l50:
  3327     07E1  0871               	movf	??_ISR+1,w
  3328     07E2  008A               	movwf	10
  3329     07E3  0E70               	swapf	??_ISR,w
  3330     07E4  0083               	movwf	3
  3331     07E5  0EFE               	swapf	btemp,f
  3332     07E6  0E7E               	swapf	btemp,w
  3333     07E7  0009               	retfie
  3334     07E8                     __end_of_ISR:
  3335     0002                     ___latbits      equ	2
  3336     007E                     btemp           set	126	;btemp
  3337     007E                     wtemp0          set	126
  3338                           
  3339                           	psect	intentry
  3340     0004                     __pintentry:	
  3341                           ;incstack = 0
  3342                           ; Regs used in _ISR: [wreg+status,2]
  3343                           
  3344     0004                     interrupt_function:
  3345     007E                     saved_w         set	btemp
  3346     0004  00FE               	movwf	btemp
  3347     0005  0E03               	swapf	3,w
  3348     0006  00F0               	movwf	??_ISR
  3349     0007  080A               	movf	10,w
  3350     0008  00F1               	movwf	??_ISR+1
  3351     0009  120A  118A  2FCC   	ljmp	_ISR

Data Sizes:
    Strings     0
    Constant    0
    Data        0
    BSS         6
    Persistent  4
    Stack       0

Auto Spaces:
    Space          Size  Autos    Used
    COMMON           14     10      12
    BANK0            80     75      75
    BANK1            80     16      24
    BANK3            96      0       0
    BANK2            96      0       0

Pointer List with Targets:

    None.

Critical Paths under _main in COMMON

    _my_delay_ms->___xxtofl
    ___flmul->__Umul8_16
    ___fldiv->___xxtofl

Critical Paths under _ISR in COMMON

    None.

Critical Paths under _main in BANK0

    _main->_my_delay_ms
    _my_delay_ms->___fltol
    ___fltol->___fldiv
    ___flmul->__Umul8_16
    ___fldiv->___flmul

Critical Paths under _ISR in BANK0

    None.

Critical Paths under _main in BANK1

    _main->_my_delay_ms

Critical Paths under _ISR in BANK1

    None.

Critical Paths under _main in BANK3

    None.

Critical Paths under _ISR in BANK3

    None.

Critical Paths under _main in BANK2

    None.

Critical Paths under _ISR in BANK2

    None.

Call Graph Tables:

 ---------------------------------------------------------------------------------
 (Depth) Function   	        Calls       Base Space   Used Autos Params    Refs
 ---------------------------------------------------------------------------------
 (0) _main                                                 2     2      0    4303
                                             73 BANK0      2     2      0
                        _my_delay_ms
 ---------------------------------------------------------------------------------
 (1) _my_delay_ms                                         22    20      2    4303
                                             67 BANK0      6     4      2
                                              0 BANK1     16    16      0
                            ___fldiv
                            ___flmul
                            ___fltol
                           ___xxtofl
 ---------------------------------------------------------------------------------
 (2) ___xxtofl                                            14    10      4     337
                                              2 COMMON     8     4      4
                                              0 BANK0      6     6      0
 ---------------------------------------------------------------------------------
 (2) ___fltol                                             10     6      4     230
                                             57 BANK0     10     6      4
                            ___fldiv (ARG)
                            ___flmul (ARG)
 ---------------------------------------------------------------------------------
 (2) ___flmul                                             26    18      8    2440
                                              5 BANK0     26    18      8
                          __Umul8_16
 ---------------------------------------------------------------------------------
 (3) __Umul8_16                                            9     7      2     232
                                              2 COMMON     4     2      2
                                              0 BANK0      5     5      0
 ---------------------------------------------------------------------------------
 (2) ___fldiv                                             26    18      8    1126
                                             31 BANK0     26    18      8
                            ___flmul (ARG)
                           ___xxtofl (ARG)
 ---------------------------------------------------------------------------------
 Estimated maximum stack depth 3
 ---------------------------------------------------------------------------------
 (Depth) Function   	        Calls       Base Space   Used Autos Params    Refs
 ---------------------------------------------------------------------------------
 (4) _ISR                                                  2     2      0       0
                                              0 COMMON     2     2      0
 ---------------------------------------------------------------------------------
 Estimated maximum stack depth 4
 ---------------------------------------------------------------------------------

 Call Graph Graphs:

 _main (ROOT)
   _my_delay_ms
     ___fldiv
       ___flmul (ARG)
         __Umul8_16
       ___xxtofl (ARG)
     ___flmul
     ___fltol
       ___fldiv (ARG)
       ___flmul (ARG)
     ___xxtofl

 _ISR (ROOT)

Address spaces:
Name               Size   Autos  Total    Usage
BITCOMMON           14      0       0      0.0%
BITBANK0            80      0       0      0.0%
BITBANK1            80      0       0      0.0%
BITBANK3            96      0       0      0.0%
BITBANK2            96      0       0      0.0%
COMMON              14     10      12     85.7%
BANK0               80     75      75     93.8%
BANK1               80     16      24     30.0%
BANK3               96      0       0      0.0%
BANK2               96      0       0      0.0%
STACK                0      0       0      0.0%
DATA                 0      0     107      0.0%


Microchip Technology PIC Macro Assembler V3.00 build 20241204225717 
Symbol Table                                                                                   Mon Mar  3 22:29:05 2025

              ___fldiv@aexp 0058                ___fldiv@bexp 0057                ___fldiv@sign 0050  
                        l56 0676         __Umul8_16@word_mpld 0022                         l501 0526  
                       l343 078D                         l336 07A2                         l521 0512  
                       l346 07A2                         l523 051E                         l515 04A0  
                       l551 0352                         l560 07CB                         l545 02CE  
                       l539 035C                         l558 07B9                         l583 069B  
                       l584 06AC                         l585 072C                         l499 03B2  
                       l596 06F6                         l597 0702                         l589 06DA  
                       _PR2 0092                         _ISR 07CC                ___flmul@aexp 0033  
              ___flmul@bexp 0038                ___flmul@sign 0032                ___flmul@temp 003D  
              ___flmul@prod 0039                        ?_ISR 0070                ___fltol@exp1 0062  
                      l1100 036B                        l1110 037F                        l1102 036C  
                      l1200 049D                        l1120 0394                        l1104 0371  
                      l1112 0381                        l1210 04BC                        l1130 03A8  
                      l1122 0395                        l1114 0389                        l1106 0376  
                      l1220 0505                        l1212 04D5                        l1204 04A5  
                      l1124 039A                        l1132 03AA                        l1116 038C  
                      l1108 037E                        l1230 051C                        l1222 0509  
                      l1206 04AA                        l1214 04DB                        l1150 03F1  
                      l1134 03BA                        l1142 03D1                        l1126 039F  
                      l1118 0390                        l1070 075F                        l1062 0741  
                      l1224 0511                        l1216 04E8                        l1208 04B8  
                      l1160 0410                        l1152 03F9                        l1144 03D6  
                      l1136 03C6                        l1128 03A7                        l1072 0763  
                      l1080 077B                        l1064 0754                        l1056 072D  
                      l1400 06E1                        l1226 0516                        l1218 04F6  
                      l1170 0442                        l1162 0422                        l1154 0401  
                      l1138 03C8                        l1090 0797                        l1066 0755  
                      l1058 0738                        l1410 071A                        l1402 06EC  
                      l1228 051A                        l1180 0461                        l1172 0443  
                      l1164 0426                        l1156 0409                        l1148 03DF  
                      l1092 035D                        l1500 001F                        l1068 075D  
                      l1412 071F                        l1404 06F0                        l1190 047A  
                      l1182 0463                        l1174 0451                        l1166 0427  
                      l1158 040B                        l1094 0361                        l1510 002F  
                      l1502 0021                        l1086 0782                        l1078 076B  
                      l1414 0723                        l1406 06FA                        l1184 046C  
                      l1192 0480                        l1168 0430                        l1176 0453  
                      l1096 0363                        l1600 02B3                        l1520 0049  
                      l1512 0034                        l1504 0025                        l1088 0792  
                      l1416 0724                        l1408 0704                        l1194 0484  
                      l1186 0470                        l1178 0459                        l1098 0367  
                      l1610 02D8                        l1602 02B7                        l1530 005C  
                      l1522 004D                        l1514 003C                        l1506 0029  
                      l1196 0485                        l1188 0471                        l1620 0316  
                      l1612 02E6                        l1604 02CB                        l1540 0078  
                      l1532 0064                        l1524 0051                        l1516 003E  
                      l1508 002A                        l1380 067F                        l1198 0489  
                      l1630 0348                        l1622 0321                        l1614 02EA  
                      l1550 00B7                        l1534 0066                        l1526 0052  
                      l1518 0046                        l1390 06AF                        l1382 0683  
                      l1632 034C                        l1624 0330                        l1616 0303  
                      l1608 02D3                        l1560 013E                        l1552 00D3  
                      l1544 0081                        l1536 006E                        l1528 0057  
                      l1392 06BA                        l1384 0693                        l1640 0527  
                      l1490 07B3                        l1634 034D                        l1626 033A  
                      l1618 0309                        l1570 01AB                        l1562 014C  
                      l1554 00FD                        l1546 008F                        l1538 0073  
                      l1394 06C1                        l1386 06A3                        l1378 067A  
                      l1650 064F                        l1642 0531                        l1492 07C2  
                      l1484 07A6                        l1636 0354                        l1628 033C  
                      l1580 0252                        l1572 01C8                        l1564 0169  
                      l1556 0119                        l1548 009C                        l1396 06C3  
                      l1652 0652                        l1644 056E                        l1660 0F9B  
                      l1494 07C7                        l1486 07A8                        l1590 029E  
                      l1582 027A                        l1574 01F3                        l1566 0177  
                      l1558 0135                        l1398 06D1                        l1654 0666  
                      l1646 05A9                        l1670 0FA8                        l1662 0F9E  
                      l1488 07AF                        l1592 029F                        l1584 0283  
                      l1576 0201                        l1568 0194                        l1648 061A  
                      l1680 0FAF                        l1672 0FAB                        l1664 0F9F  
                      l1656 0F95                        l1594 02A8                        l1586 0291  
                      l1578 022C                        l1498 001B                        l1690 0FD3  
                      l1682 0FB1                        l1674 0FAC                        l1666 0FA3  
                      l1658 0F99                        l1588 029A                        l1596 02AE  
                      l1692 0FD5                        l1684 0FBA                        l1676 0FAD  
                      l1668 0FA6                        l1598 02B2                        l1694 0FDF  
                      l1686 0FC3                        l1678 0FAE                        l1696 0FF0  
                      l1688 0FCA                        u1100 077A                        u1101 0779  
                      u1110 0781                        u1111 0780                        u1200 039F  
                      u1201 039E                        u1210 03BA                        u1130 0792  
                      u1050 0738                        u1211 03B9                        u1131 0791  
                      u1051 0737                        u1300 0461                        u1220 03D6  
                      u2100 0057                        u1140 0797                        u1060 074F  
                      u1301 0460                        u1221 03D5                        u2101 0056  
                      u1141 0796                        u1125 0784                        u1230 0410  
                      u1150 036B                        u2030 07B3                        u2110 005C  
                      u1070 0763                        u1231 040F                        u1151 036A  
                      u2031 07B2                        u2111 005B                        u1071 0762  
                      u1400 04CB                        u1320 0470                        u1160 0371  
                      u2120 0073                        u1080 076A                        u1321 046F  
                      u1161 0370                        u2201 0186                        u2121 0072  
                      u1081 0769                        u1065 074A                        u1410 04E8  
                      u1170 0376                        u2050 07C7                        u2202 018D  
                      u2130 0078                        u1411 04E7                        u1315 0465  
                      u1171 0375                        u2051 07C6                        u2203 0194  
                      u2131 0077                        u1420 0505                        u1340 0484  
                      u1260 0426                        u1180 0394                        u2060 0029  
                      u1421 0504                        u1405 04C6                        u1341 0483  
                      u1261 0425                        u1245 0412                        u1181 0393  
                      u2045 07BA                        u2221 01BA                        u2141 00C5  
                      u2061 0028                        u1430 051A                        u1350 0489  
                      u1190 039A                        u2310 029E                        u2222 01C1  
                      u2142 00CC                        u2070 002F                        u1431 0519  
                      u1415 04E4                        u1351 0488                        u1335 0473  
                      u1255 041B                        u1191 0399                        u2311 029D  
                      u2231 01E5                        u2223 01C8                        u2215 0196  
                      u2151 00E1                        u2143 00D3                        u2071 002E  
                      u1095 076C                        u1360 049D                        u1280 0442  
                      u2400 0316                        u2232 01EC                        u2152 00E8  
                      u2080 0034                        u1425 0501                        u1361 049C  
                      u1281 0441                        u2401 0315                        u2305 0293  
                      u2241 0210                        u2233 01F3                        u2161 010B  
                      u2153 00EF                        u2081 0033                        u1370 04A4  
                      u1290 0459                        u2410 0330                        u2330 02B2  
                      u2250 0238                        u2242 0217                        u2162 0112  
                      u2090 0051                        u1371 04A3                        u1291 0458  
                      u1275 0429                        u2411 032F                        u2331 02B1  
                      u2243 021E                        u2171 0127                        u2163 0119  
                      u2091 0050                        u1380 04AA                        u2420 034C  
                      u2340 02B7                        u2172 012E                        u1381 04A9  
                      u1285 043E                        u2421 034B                        u2405 0312  
                      u2341 02B6                        u2325 02A1                        u2261 0244  
                      u2173 0135                        u1390 04BC                        u2350 02CB  
                      u2270 0260                        u2262 024B                        u2430 0636  
                      u1391 04BB                        u2415 032C                        u2351 02CA  
                      u2263 0252                        u2255 0233                        u2191 015B  
                      u2360 02D2                        u2192 0162                        u2440 0666  
                      u2504 0FF0                        u2361 02D1                        u2281 026C  
                      u2193 0169                        u2185 0137                        u2441 0665  
                      u2370 02D8                        u2282 0273                        u1810 067F  
                      u2450 0FC3                        u2371 02D7                        u2283 027A  
                      u2275 025B                        u1811 067E                        u2435 0631  
                      u2451 0FC2                        u2380 02EA                        u1900 06F6  
                      u1820 0683                        u2460 0FD3                        u2381 02E9  
                      u1901 06F5                        u1821 0682                        u2445 0662  
                      u2461 0FD2                        u2390 02F9                        u1910 06FA  
                      u1830 06A3                        u2470 0FDC                        u2295 027C  
                      u1911 06F9                        u1831 06A2                        u2471 0FD8  
                      u1920 070F                        u1930 071F                        u1850 06C0  
                      u2490 0FED                        u2395 02F4                        u1931 071E  
                      u1851 06BF                        u2491 0FE9                        u1940 0723  
                      u2484 0FDF                        u1941 0722                        u1925 070A  
                      u1845 06B2                        u1870 06E0                        u1871 06DF  
                      u1865 06D2                        u1890 06F0                        u1891 06EF  
                      u1885 06E5                        i1l50 07E1                        _TMR0 0001  
                      _main 0F95                        btemp 007E                        start 000C  
           ___fldiv@new_exp 0051                       ??_ISR 0070                       _DC1B0 00BC  
                     _DC1B1 00BD               ___fltol@sign1 0061                       ?_main 0070  
           __end_of___fldiv 0527             __end_of___flmul 035D             __end_of___fltol 07A3  
                     _ANSEL 0188                       _T2CON 0012                       _TRISC 0087  
                     pclath 000A                       status 0003                       wtemp0 007E  
           __initialization 000F                __end_of_main 1000                      ??_main 0069  
                    _CCPR1L 0015                      _ANSELH 0189                      i1l1480 07DC  
                    i1l1482 07DF                      i1l1478 07CC                      _INTCON 000B  
              ?_my_delay_ms 0063                      _TMR2ON 0092            __end_of___xxtofl 072D  
                 ??___fldiv 0047                   ??___flmul 002D                   ??___fltol 005D  
            my_delay_ms@m_s 0063                      saved_w 007E                ___xxtofl@arg 0022  
              ___xxtofl@exp 0021                ___xxtofl@val 0072     __end_of__initialization 0017  
                ___fltol@f1 0059              __pcstackCOMMON 0070                  __pbssBANK1 00B4  
   my_delay_ms@no_of_counts 00A8           __end_of__Umul8_16 07CC                  __pmaintext 0F95  
                __pintentry 0004                     _CCP1CON 0017      my_delay_ms@user_period 00A4  
                 ?___xxtofl 0072  _calculated_overflow_counts 00B0                     ___fldiv 035D  
                   ___flmul 001B                     ___fltol 072D                     __ptext1 0527  
                   __ptext2 0677                     __ptext3 072D                     __ptext4 001B  
                   __ptext5 07A3                     __ptext6 035D                     __ptext7 07CC  
                ??___xxtofl 0076                     _pwm_val 007A        end_of_initialization 0017  
             ___xxtofl@sign 0020                 ___fldiv@grs 0053                 ___fldiv@rem 004C  
               ___flmul@grs 0034         start_initialization 000F                 __end_of_ISR 07E8  
                 __Umul8_16 07A3                   ___fldiv@a 003F                   ___fldiv@b 0043  
                 ___flmul@a 0029                   ___flmul@b 0025                 __pbssCOMMON 007A  
                 ___latbits 0002               __pcstackBANK0 0020               __pcstackBANK1 00A0  
                 __pnvBANK1 00B0                    ?___fldiv 003F                    ?___flmul 0025  
                  ?___fltol 0059                  ?__Umul8_16 0072             _my_delay_ms$661 00AC  
             ??_my_delay_ms 0065           interrupt_function 0004             _overflow_counts 00B4  
       __end_of_my_delay_ms 0677                 ??__Umul8_16 0074                    ___xxtofl 0677  
                  intlevel1 0000                 _my_delay_ms 0527      __Umul8_16@multiplicand 0072  
                _OPTION_REG 0081        __Umul8_16@multiplier 0024       my_delay_ms@clk_period 00A0  
         __Umul8_16@product 0020  
