

Microchip MPLAB XC8 Assembler V3.00 build 20241204225717 
                                                                                               Tue Mar  4 16:02:01 2025

Microchip MPLAB XC8 C Compiler v3.00 (Free license) build 20241204225717 Og1 
     1                           	processor	16F887
     2                           	pagewidth 120
     3                           	opt	flic
     4                           	psect	strings,global,class=STRING,space=0,delta=2,noexec
     5                           	psect	cinit,global,class=CODE,space=0,merge=1,delta=2
     6                           	psect	bssBANK0,global,class=BANK0,space=1,delta=1,noexec
     7                           	psect	bssBANK1,global,class=BANK1,space=1,delta=1,noexec
     8                           	psect	clrtext,global,class=CODE,space=0,delta=2
     9                           	psect	cstackCOMMON,global,class=COMMON,space=1,delta=1,noexec
    10                           	psect	cstackBANK0,global,class=BANK0,space=1,delta=1,noexec
    11                           	psect	maintext,global,class=CODE,space=0,split=1,delta=2
    12                           	psect	text1,local,class=CODE,space=0,merge=1,delta=2
    13                           	psect	text2,local,class=CODE,space=0,merge=1,delta=2
    14                           	psect	text3,local,class=CODE,space=0,merge=1,delta=2
    15                           	psect	text4,local,class=CODE,space=0,merge=1,delta=2
    16                           	psect	text5,local,class=CODE,space=0,merge=1,delta=2
    17                           	psect	text6,local,class=CODE,space=0,merge=1,delta=2
    18                           	psect	text7,local,class=CODE,space=0,merge=1,delta=2
    19                           	psect	text8,local,class=CODE,space=0,merge=1,delta=2
    20                           	psect	text9,local,class=CODE,space=0,merge=1,delta=2
    21                           	psect	text10,local,class=CODE,space=0,merge=1,delta=2
    22                           	psect	text11,local,class=CODE,space=0,merge=1,delta=2
    23                           	psect	text12,local,class=CODE,space=0,merge=1,delta=2,group=3
    24                           	psect	text13,local,class=CODE,space=0,merge=1,delta=2,group=1
    25                           	psect	text14,local,class=CODE,space=0,merge=1,delta=2,group=1
    26                           	psect	text15,local,class=CODE,space=0,merge=1,delta=2,group=3
    27                           	psect	text16,local,class=CODE,space=0,merge=1,delta=2,group=3
    28                           	psect	text17,local,class=CODE,space=0,merge=1,delta=2,group=3
    29                           	psect	text18,local,class=CODE,space=0,merge=1,delta=2,group=2
    30                           	psect	text19,local,class=CODE,space=0,merge=1,delta=2,group=2
    31                           	psect	text20,local,class=CODE,space=0,merge=1,delta=2,group=3
    32                           	psect	text21,local,class=CODE,space=0,merge=1,delta=2
    33                           	psect	text22,local,class=CODE,space=0,merge=1,delta=2,group=2
    34                           	psect	text23,local,class=CODE,space=0,merge=1,delta=2,group=2
    35                           	psect	text24,local,class=CODE,space=0,merge=1,delta=2
    36                           	psect	text25,local,class=CODE,space=0,merge=1,delta=2,group=2
    37                           	psect	text26,local,class=CODE,space=0,merge=1,delta=2,group=2
    38                           	psect	text27,local,class=CODE,space=0,merge=1,delta=2,group=2
    39                           	dabs	1,0x7E,2
    40     0000                     
    41                           ; Generated 12/10/2023 GMT
    42                           ; 
    43                           ; Copyright © 2023, Microchip Technology Inc. and its subsidiaries ("Microchip")
    44                           ; All rights reserved.
    45                           ; 
    46                           ; This software is developed by Microchip Technology Inc. and its subsidiaries ("Microch
      +                          ip").
    47                           ; 
    48                           ; Redistribution and use in source and binary forms, with or without modification, are
    49                           ; permitted provided that the following conditions are met:
    50                           ; 
    51                           ;     1. Redistributions of source code must retain the above copyright notice, this lis
      +                          t of
    52                           ;        conditions and the following disclaimer.
    53                           ; 
    54                           ;     2. Redistributions in binary form must reproduce the above copyright notice, this 
      +                          list
    55                           ;        of conditions and the following disclaimer in the documentation and/or other
    56                           ;        materials provided with the distribution. Publication is not required when
    57                           ;        this file is used in an embedded application.
    58                           ; 
    59                           ;     3. Microchip's name may not be used to endorse or promote products derived from th
      +                          is
    60                           ;        software without specific prior written permission.
    61                           ; 
    62                           ; THIS SOFTWARE IS PROVIDED BY MICROCHIP "AS IS" AND ANY EXPRESS OR IMPLIED WARRANTIES,
    63                           ; INCLUDING, BUT NOT LIMITED TO, THE IMPLIED WARRANTIES OF MERCHANTABILITY AND FITNESS F
      +                          OR
    64                           ; PURPOSE ARE DISCLAIMED.  IN NO EVENT SHALL MICROCHIP BE LIABLE FOR ANY DIRECT, INDIREC
      +                          T,
    65                           ; INCIDENTAL, SPECIAL, EXEMPLARY, OR CONSEQUENTIAL DAMAGES (INCLUDING BUT NOT LIMITED TO
    66                           ; PROCUREMENT OF SUBSTITUTE GOODS OR SERVICES; LOSS OF USE, DATA OR PROFITS; OR BUSINESS
    67                           ; INTERRUPTION) HOWSOEVER CAUSED AND ON ANY THEORY OF LIABILITY, WHETHER IN CONTRACT, ST
      +                          RICT
    68                           ; LIABILITY, OR TORT (INCLUDING NEGLIGENCE OR OTHERWISE) ARISING IN ANY WAY OUT OF THE U
      +                          SE OF
    69                           ; THIS SOFTWARE, EVEN IF ADVISED OF THE POSSIBILITY OF SUCH DAMAGE.
    70                           ; 
    71                           ; 
    72                           ; Code-generator required, PIC16F887 Definitions
    73                           ; 
    74                           ; SFR Addresses
    75     0004                     fsr             equ	4
    76     0004                     fsr0            equ	4
    77     0000                     indf            equ	0
    78     0000                     indf0           equ	0
    79     0002                     pc              equ	2
    80     0002                     pcl             equ	2
    81     000A                     pclath          equ	10
    82     0003                     status          equ	3
    83     0000                     INDF            equ	0	;# 
    84     0001                     TMR0            equ	1	;# 
    85     0002                     PCL             equ	2	;# 
    86     0003                     STATUS          equ	3	;# 
    87     0004                     FSR             equ	4	;# 
    88     0005                     PORTA           equ	5	;# 
    89     0006                     PORTB           equ	6	;# 
    90     0007                     PORTC           equ	7	;# 
    91     0008                     PORTD           equ	8	;# 
    92     0009                     PORTE           equ	9	;# 
    93     000A                     PCLATH          equ	10	;# 
    94     000B                     INTCON          equ	11	;# 
    95     000C                     PIR1            equ	12	;# 
    96     000D                     PIR2            equ	13	;# 
    97     000E                     TMR1            equ	14	;# 
    98     000E                     TMR1L           equ	14	;# 
    99     000F                     TMR1H           equ	15	;# 
   100     0010                     T1CON           equ	16	;# 
   101     0011                     TMR2            equ	17	;# 
   102     0012                     T2CON           equ	18	;# 
   103     0013                     SSPBUF          equ	19	;# 
   104     0014                     SSPCON          equ	20	;# 
   105     0015                     CCPR1           equ	21	;# 
   106     0015                     CCPR1L          equ	21	;# 
   107     0016                     CCPR1H          equ	22	;# 
   108     0017                     CCP1CON         equ	23	;# 
   109     0018                     RCSTA           equ	24	;# 
   110     0019                     TXREG           equ	25	;# 
   111     001A                     RCREG           equ	26	;# 
   112     001B                     CCPR2           equ	27	;# 
   113     001B                     CCPR2L          equ	27	;# 
   114     001C                     CCPR2H          equ	28	;# 
   115     001D                     CCP2CON         equ	29	;# 
   116     001E                     ADRESH          equ	30	;# 
   117     001F                     ADCON0          equ	31	;# 
   118     0081                     OPTION_REG      equ	129	;# 
   119     0085                     TRISA           equ	133	;# 
   120     0086                     TRISB           equ	134	;# 
   121     0087                     TRISC           equ	135	;# 
   122     0088                     TRISD           equ	136	;# 
   123     0089                     TRISE           equ	137	;# 
   124     008C                     PIE1            equ	140	;# 
   125     008D                     PIE2            equ	141	;# 
   126     008E                     PCON            equ	142	;# 
   127     008F                     OSCCON          equ	143	;# 
   128     0090                     OSCTUNE         equ	144	;# 
   129     0091                     SSPCON2         equ	145	;# 
   130     0092                     PR2             equ	146	;# 
   131     0093                     SSPADD          equ	147	;# 
   132     0093                     SSPMSK          equ	147	;# 
   133     0093                     MSK             equ	147	;# 
   134     0094                     SSPSTAT         equ	148	;# 
   135     0095                     WPUB            equ	149	;# 
   136     0096                     IOCB            equ	150	;# 
   137     0097                     VRCON           equ	151	;# 
   138     0098                     TXSTA           equ	152	;# 
   139     0099                     SPBRG           equ	153	;# 
   140     009A                     SPBRGH          equ	154	;# 
   141     009B                     PWM1CON         equ	155	;# 
   142     009C                     ECCPAS          equ	156	;# 
   143     009D                     PSTRCON         equ	157	;# 
   144     009E                     ADRESL          equ	158	;# 
   145     009F                     ADCON1          equ	159	;# 
   146     0105                     WDTCON          equ	261	;# 
   147     0107                     CM1CON0         equ	263	;# 
   148     0108                     CM2CON0         equ	264	;# 
   149     0109                     CM2CON1         equ	265	;# 
   150     010C                     EEDATA          equ	268	;# 
   151     010C                     EEDAT           equ	268	;# 
   152     010D                     EEADR           equ	269	;# 
   153     010E                     EEDATH          equ	270	;# 
   154     010F                     EEADRH          equ	271	;# 
   155     0185                     SRCON           equ	389	;# 
   156     0187                     BAUDCTL         equ	391	;# 
   157     0188                     ANSEL           equ	392	;# 
   158     0189                     ANSELH          equ	393	;# 
   159     018C                     EECON1          equ	396	;# 
   160     018D                     EECON2          equ	397	;# 
   161     0000                     INDF            equ	0	;# 
   162     0001                     TMR0            equ	1	;# 
   163     0002                     PCL             equ	2	;# 
   164     0003                     STATUS          equ	3	;# 
   165     0004                     FSR             equ	4	;# 
   166     0005                     PORTA           equ	5	;# 
   167     0006                     PORTB           equ	6	;# 
   168     0007                     PORTC           equ	7	;# 
   169     0008                     PORTD           equ	8	;# 
   170     0009                     PORTE           equ	9	;# 
   171     000A                     PCLATH          equ	10	;# 
   172     000B                     INTCON          equ	11	;# 
   173     000C                     PIR1            equ	12	;# 
   174     000D                     PIR2            equ	13	;# 
   175     000E                     TMR1            equ	14	;# 
   176     000E                     TMR1L           equ	14	;# 
   177     000F                     TMR1H           equ	15	;# 
   178     0010                     T1CON           equ	16	;# 
   179     0011                     TMR2            equ	17	;# 
   180     0012                     T2CON           equ	18	;# 
   181     0013                     SSPBUF          equ	19	;# 
   182     0014                     SSPCON          equ	20	;# 
   183     0015                     CCPR1           equ	21	;# 
   184     0015                     CCPR1L          equ	21	;# 
   185     0016                     CCPR1H          equ	22	;# 
   186     0017                     CCP1CON         equ	23	;# 
   187     0018                     RCSTA           equ	24	;# 
   188     0019                     TXREG           equ	25	;# 
   189     001A                     RCREG           equ	26	;# 
   190     001B                     CCPR2           equ	27	;# 
   191     001B                     CCPR2L          equ	27	;# 
   192     001C                     CCPR2H          equ	28	;# 
   193     001D                     CCP2CON         equ	29	;# 
   194     001E                     ADRESH          equ	30	;# 
   195     001F                     ADCON0          equ	31	;# 
   196     0081                     OPTION_REG      equ	129	;# 
   197     0085                     TRISA           equ	133	;# 
   198     0086                     TRISB           equ	134	;# 
   199     0087                     TRISC           equ	135	;# 
   200     0088                     TRISD           equ	136	;# 
   201     0089                     TRISE           equ	137	;# 
   202     008C                     PIE1            equ	140	;# 
   203     008D                     PIE2            equ	141	;# 
   204     008E                     PCON            equ	142	;# 
   205     008F                     OSCCON          equ	143	;# 
   206     0090                     OSCTUNE         equ	144	;# 
   207     0091                     SSPCON2         equ	145	;# 
   208     0092                     PR2             equ	146	;# 
   209     0093                     SSPADD          equ	147	;# 
   210     0093                     SSPMSK          equ	147	;# 
   211     0093                     MSK             equ	147	;# 
   212     0094                     SSPSTAT         equ	148	;# 
   213     0095                     WPUB            equ	149	;# 
   214     0096                     IOCB            equ	150	;# 
   215     0097                     VRCON           equ	151	;# 
   216     0098                     TXSTA           equ	152	;# 
   217     0099                     SPBRG           equ	153	;# 
   218     009A                     SPBRGH          equ	154	;# 
   219     009B                     PWM1CON         equ	155	;# 
   220     009C                     ECCPAS          equ	156	;# 
   221     009D                     PSTRCON         equ	157	;# 
   222     009E                     ADRESL          equ	158	;# 
   223     009F                     ADCON1          equ	159	;# 
   224     0105                     WDTCON          equ	261	;# 
   225     0107                     CM1CON0         equ	263	;# 
   226     0108                     CM2CON0         equ	264	;# 
   227     0109                     CM2CON1         equ	265	;# 
   228     010C                     EEDATA          equ	268	;# 
   229     010C                     EEDAT           equ	268	;# 
   230     010D                     EEADR           equ	269	;# 
   231     010E                     EEDATH          equ	270	;# 
   232     010F                     EEADRH          equ	271	;# 
   233     0185                     SRCON           equ	389	;# 
   234     0187                     BAUDCTL         equ	391	;# 
   235     0188                     ANSEL           equ	392	;# 
   236     0189                     ANSELH          equ	393	;# 
   237     018C                     EECON1          equ	396	;# 
   238     018D                     EECON2          equ	397	;# 
   239     0008                     _PORTDbits      set	8
   240     001A                     _RCREG          set	26
   241     0019                     _TXREG          set	25
   242     001E                     _ADRESH         set	30
   243     001F                     _ADCON0         set	31
   244     0065                     _RCIF           set	101
   245     0064                     _TXIF           set	100
   246     00C4                     _CREN           set	196
   247     00C6                     _RX9            set	198
   248     00C7                     _SPEN           set	199
   249     0099                     _SPBRG          set	153
   250     009E                     _ADRESL         set	158
   251     009F                     _ADCON1         set	159
   252     0445                     _TRISD5         set	1093
   253     0444                     _TRISD4         set	1092
   254     0443                     _TRISD3         set	1091
   255     0442                     _TRISD2         set	1090
   256     0441                     _TRISD1         set	1089
   257     0440                     _TRISD0         set	1088
   258     04C5                     _TXEN           set	1221
   259     04C6                     _TX9            set	1222
   260     04C2                     _BRGH           set	1218
   261     04C4                     _SYNC           set	1220
   262     043F                     _TRISC7         set	1087
   263     043E                     _TRISC6         set	1086
   264     0428                     _TRISA0         set	1064
   265     0189                     _ANSELH         set	393
   266     0188                     _ANSEL          set	392
   267     0C3B                     _BRG16          set	3131
   268                           
   269                           	psect	strings
   270     0800                     __pstrings:
   271     0800                     stringtab:
   272     0800                     __stringtab:
   273     0800                     stringcode:	
   274                           ;	String table - string pointers are 1 byte each
   275                           
   276     0800                     stringdir:
   277     0800  3008               	movlw	high stringdir
   278     0801  008A               	movwf	10
   279     0802  0804               	movf	4,w
   280     0803  0A84               	incf	4,f
   281     0804  0782               	addwf	2,f
   282     0805                     __stringbase:
   283     0805  3400               	retlw	0
   284     0806                     __end_of__stringtab:
   285     0806                     STR_1:
   286     0806  3425               	retlw	37	;'%'
   287     0807  3469               	retlw	105	;'i'
   288     0808  3400               	retlw	0
   289     0806                     STR_2           equ	STR_1
   290                           
   291                           	psect	cinit
   292     07EB                     start_initialization:	
   293                           ; #config settings
   294                           
   295     07EB                     __initialization:
   296                           
   297                           ; Clear objects allocated to BANK0
   298     07EB  1383               	bcf	3,7	;select IRP bank0
   299     07EC  3068               	movlw	low __pbssBANK0
   300     07ED  0084               	movwf	4
   301     07EE  3070               	movlw	low (__pbssBANK0+8)
   302     07EF  120A  158A  2413  120A  118A  	fcall	clear_ram0
   303                           
   304                           ; Clear objects allocated to BANK1
   305     07F4  30A0               	movlw	low __pbssBANK1
   306     07F5  0084               	movwf	4
   307     07F6  30CD               	movlw	low (__pbssBANK1+45)
   308     07F7  120A  158A  2413  120A  118A  	fcall	clear_ram0
   309     07FC                     end_of_initialization:	
   310                           ;End of C runtime variable initialization code
   311                           
   312     07FC                     __end_of__initialization:
   313     07FC  0183               	clrf	3
   314     07FD  120A  118A  2927   	ljmp	_main	;jump to C main() function
   315                           
   316                           	psect	bssBANK0
   317     0068                     __pbssBANK0:
   318     0068                     _width:
   319     0068                     	ds	2
   320     006A                     _prec:
   321     006A                     	ds	2
   322     006C                     _adc_conversion_result:
   323     006C                     	ds	2
   324     006E                     _flags:
   325     006E                     	ds	1
   326     006F                     _adc_output:
   327     006F                     	ds	1
   328                           
   329                           	psect	bssBANK1
   330     00A0                     __pbssBANK1:
   331     00A0                     _dbuf:
   332     00A0                     	ds	32
   333     00C0                     convert_uint16_to_string@F1967:
   334     00C0                     	ds	6
   335     00C6                     _adc_res_real_txt:
   336     00C6                     	ds	7
   337                           
   338                           	psect	clrtext
   339     0C13                     clear_ram0:	
   340                           ;	Called with FSR containing the base address, and
   341                           ;	W with the last address+1
   342                           
   343     0C13  0064               	clrwdt	;clear the watchdog before getting into this loop
   344     0C14                     clrloop0:
   345     0C14  0180               	clrf	0	;clear RAM location pointed to by FSR
   346     0C15  0A84               	incf	4,f	;increment pointer
   347     0C16  0604               	xorwf	4,w	;XOR with final address
   348     0C17  1903               	btfsc	3,2	;have we reached the end yet?
   349     0C18  3400               	retlw	0	;all done for this memory range, return
   350     0C19  0604               	xorwf	4,w	;XOR again to restore value
   351     0C1A  2C14               	goto	clrloop0	;do the next byte
   352                           
   353                           	psect	cstackCOMMON
   354     0070                     __pcstackCOMMON:
   355     0070                     ?_adc_initialize:
   356     0070                     ?_uart_tx_initialize:	
   357                           ; 1 bytes @ 0x0
   358                           
   359     0070                     ?_lcd_4bit_intialize:	
   360                           ; 1 bytes @ 0x0
   361                           
   362     0070                     ?_lcd_4bit_clear:	
   363                           ; 1 bytes @ 0x0
   364                           
   365     0070                     ?_uart_send:	
   366                           ; 1 bytes @ 0x0
   367                           
   368     0070                     ?_lcd_4bit_send_command:	
   369                           ; 1 bytes @ 0x0
   370                           
   371     0070                     ?_lcd_send_4bits:	
   372                           ; 1 bytes @ 0x0
   373                           
   374     0070                     ?_lcd_4bit_send_enable_signal:	
   375                           ; 1 bytes @ 0x0
   376                           
   377     0070                     ?_memset:	
   378                           ; 1 bytes @ 0x0
   379                           
   380     0070                     ?_putch:	
   381                           ; 1 bytes @ 0x0
   382                           
   383     0070                     ?_main:	
   384                           ; 1 bytes @ 0x0
   385                           
   386     0070                     ?_lcd_4bit_send_char_data:	
   387                           ; 1 bytes @ 0x0
   388                           
   389     0070                     ?__Umul8_16:	
   390                           ; 1 bytes @ 0x0
   391                           
   392     0070                     ?_fputc:	
   393                           ; 2 bytes @ 0x0
   394                           
   395     0070                     ?___awdiv:	
   396                           ; 2 bytes @ 0x0
   397                           
   398     0070                     ?___awmod:	
   399                           ; 2 bytes @ 0x0
   400                           
   401     0070                     ?___xxtofl:	
   402                           ; 2 bytes @ 0x0
   403                           
   404     0070                     uart_send@value:	
   405                           ; 4 bytes @ 0x0
   406                           
   407     0070                     __Umul8_16@multiplicand:	
   408                           ; 1 bytes @ 0x0
   409                           
   410     0070                     memset@dest:	
   411                           ; 1 bytes @ 0x0
   412                           
   413     0070                     putch@c:	
   414                           ; 1 bytes @ 0x0
   415                           
   416     0070                     ___awdiv@divisor:	
   417                           ; 1 bytes @ 0x0
   418                           
   419     0070                     ___awmod@divisor:	
   420                           ; 2 bytes @ 0x0
   421                           
   422     0070                     fputc@c:	
   423                           ; 2 bytes @ 0x0
   424                           
   425     0070                     ___xxtofl@val:	
   426                           ; 2 bytes @ 0x0
   427                           
   428     0070                     ??_adc_initialize:	
   429                           ; 4 bytes @ 0x0
   430                           
   431     0070                     ??_uart_tx_initialize:	
   432                           ; 1 bytes @ 0x0
   433                           
   434     0070                     ??_uart_send:	
   435                           ; 1 bytes @ 0x0
   436                           
   437     0070                     ??_lcd_send_4bits:	
   438                           ; 1 bytes @ 0x0
   439                           
   440     0070                     ??_lcd_4bit_send_enable_signal:	
   441                           ; 1 bytes @ 0x0
   442                           
   443     0070                     ??_putch:	
   444                           ; 1 bytes @ 0x0
   445                           
   446                           
   447                           ; 1 bytes @ 0x0
   448     0070                     	ds	1
   449     0071                     memset@c:
   450                           
   451                           ; 2 bytes @ 0x1
   452     0071                     	ds	1
   453     0072                     lcd_send_4bits@_data_command:
   454     0072                     ___awdiv@dividend:	
   455                           ; 1 bytes @ 0x2
   456                           
   457     0072                     ___awmod@dividend:	
   458                           ; 2 bytes @ 0x2
   459                           
   460     0072                     fputc@fp:	
   461                           ; 2 bytes @ 0x2
   462                           
   463     0072                     ??__Umul8_16:	
   464                           ; 2 bytes @ 0x2
   465                           
   466                           
   467                           ; 1 bytes @ 0x2
   468     0072                     	ds	1
   469     0073                     memset@n:
   470     0073                     ??_lcd_4bit_send_command:	
   471                           ; 2 bytes @ 0x3
   472                           
   473     0073                     ??_lcd_4bit_send_char_data:	
   474                           ; 1 bytes @ 0x3
   475                           
   476                           
   477                           ; 1 bytes @ 0x3
   478     0073                     	ds	1
   479     0074                     lcd_4bit_send_command@command:
   480     0074                     lcd_4bit_send_char_data@data:	
   481                           ; 1 bytes @ 0x4
   482                           
   483     0074                     ___awdiv@counter:	
   484                           ; 1 bytes @ 0x4
   485                           
   486     0074                     ___awmod@counter:	
   487                           ; 1 bytes @ 0x4
   488                           
   489     0074                     __Umul8_16@product:	
   490                           ; 1 bytes @ 0x4
   491                           
   492     0074                     ??_fputc:	
   493                           ; 2 bytes @ 0x4
   494                           
   495     0074                     ??___awdiv:	
   496                           ; 1 bytes @ 0x4
   497                           
   498     0074                     ??___awmod:	
   499                           ; 1 bytes @ 0x4
   500                           
   501     0074                     ??___xxtofl:	
   502                           ; 1 bytes @ 0x4
   503                           
   504                           
   505                           ; 1 bytes @ 0x4
   506     0074                     	ds	1
   507     0075                     ?_lcd_4bit_set_cursor:
   508     0075                     ?_lcd_4bit_send_string:	
   509                           ; 1 bytes @ 0x5
   510                           
   511     0075                     lcd_4bit_set_cursor@coulmn:	
   512                           ; 1 bytes @ 0x5
   513                           
   514     0075                     lcd_4bit_send_string@str:	
   515                           ; 1 bytes @ 0x5
   516                           
   517     0075                     ___awdiv@sign:	
   518                           ; 1 bytes @ 0x5
   519                           
   520     0075                     ___awmod@sign:	
   521                           ; 1 bytes @ 0x5
   522                           
   523     0075                     memset@p:	
   524                           ; 1 bytes @ 0x5
   525                           
   526     0075                     ??_lcd_4bit_intialize:	
   527                           ; 1 bytes @ 0x5
   528                           
   529     0075                     ??_lcd_4bit_clear:	
   530                           ; 1 bytes @ 0x5
   531                           
   532     0075                     ??_memset:	
   533                           ; 1 bytes @ 0x5
   534                           
   535                           
   536                           ; 1 bytes @ 0x5
   537     0075                     	ds	1
   538     0076                     ?_abs:
   539     0076                     lcd_4bit_set_cursor@row:	
   540                           ; 2 bytes @ 0x6
   541                           
   542     0076                     ___awdiv@quotient:	
   543                           ; 1 bytes @ 0x6
   544                           
   545     0076                     __Umul8_16@word_mpld:	
   546                           ; 2 bytes @ 0x6
   547                           
   548     0076                     abs@a:	
   549                           ; 2 bytes @ 0x6
   550                           
   551     0076                     ??_lcd_4bit_set_cursor:	
   552                           ; 2 bytes @ 0x6
   553                           
   554     0076                     ??_lcd_4bit_send_string:	
   555                           ; 1 bytes @ 0x6
   556                           
   557                           
   558                           ; 1 bytes @ 0x6
   559     0076                     	ds	2
   560     0078                     __Umul8_16@multiplier:
   561     0078                     ___xxtofl@sign:	
   562                           ; 1 bytes @ 0x8
   563                           
   564     0078                     ??_abs:	
   565                           ; 1 bytes @ 0x8
   566                           
   567                           
   568                           ; 1 bytes @ 0x8
   569     0078                     	ds	1
   570     0079                     ___xxtofl@exp:
   571                           
   572                           ; 1 bytes @ 0x9
   573     0079                     	ds	1
   574     007A                     ___xxtofl@arg:
   575                           
   576                           ; 4 bytes @ 0xA
   577     007A                     	ds	3
   578     007D                     vfprintf@cfmt:
   579     007D                     ??_vfprintf:	
   580                           ; 1 bytes @ 0xD
   581                           
   582                           
   583                           ; 1 bytes @ 0xD
   584     007D                     	ds	1
   585                           
   586                           	psect	cstackBANK0
   587     0020                     __pcstackBANK0:
   588     0020                     ?_vfpfcnvrt:
   589     0020                     ?___flmul:	
   590                           ; 1 bytes @ 0x0
   591                           
   592     0020                     vfpfcnvrt@fp:	
   593                           ; 4 bytes @ 0x0
   594                           
   595     0020                     ___flmul@b:	
   596                           ; 2 bytes @ 0x0
   597                           
   598                           
   599                           ; 4 bytes @ 0x0
   600     0020                     	ds	2
   601     0022                     vfpfcnvrt@fmt:
   602                           
   603                           ; 1 bytes @ 0x2
   604     0022                     	ds	1
   605     0023                     vfpfcnvrt@ap:
   606                           
   607                           ; 1 bytes @ 0x3
   608     0023                     	ds	1
   609     0024                     ___flmul@a:
   610     0024                     ??_vfpfcnvrt:	
   611                           ; 4 bytes @ 0x4
   612                           
   613                           
   614                           ; 1 bytes @ 0x4
   615     0024                     	ds	2
   616     0026                     vfpfcnvrt@done:
   617                           
   618                           ; 1 bytes @ 0x6
   619     0026                     	ds	1
   620     0027                     vfpfcnvrt@cp:
   621                           
   622                           ; 1 bytes @ 0x7
   623     0027                     	ds	1
   624     0028                     vfpfcnvrt@convarg:
   625     0028                     ??___flmul:	
   626                           ; 4 bytes @ 0x8
   627                           
   628                           
   629                           ; 1 bytes @ 0x8
   630     0028                     	ds	4
   631     002C                     vfpfcnvrt@c:
   632                           
   633                           ; 1 bytes @ 0xC
   634     002C                     	ds	1
   635     002D                     ?_vfprintf:
   636     002D                     ___flmul@sign:	
   637                           ; 2 bytes @ 0xD
   638                           
   639     002D                     vfprintf@fp:	
   640                           ; 1 bytes @ 0xD
   641                           
   642                           
   643                           ; 2 bytes @ 0xD
   644     002D                     	ds	1
   645     002E                     ___flmul@grs:
   646                           
   647                           ; 4 bytes @ 0xE
   648     002E                     	ds	1
   649     002F                     vfprintf@fmt:
   650                           
   651                           ; 1 bytes @ 0xF
   652     002F                     	ds	1
   653     0030                     vfprintf@ap:
   654                           
   655                           ; 1 bytes @ 0x10
   656     0030                     	ds	1
   657     0031                     ?_sprintf:
   658     0031                     sprintf@s:	
   659                           ; 2 bytes @ 0x11
   660                           
   661                           
   662                           ; 1 bytes @ 0x11
   663     0031                     	ds	1
   664     0032                     ___flmul@aexp:
   665     0032                     sprintf@fmt:	
   666                           ; 1 bytes @ 0x12
   667                           
   668                           
   669                           ; 1 bytes @ 0x12
   670     0032                     	ds	1
   671     0033                     ___flmul@bexp:
   672                           
   673                           ; 1 bytes @ 0x13
   674     0033                     	ds	1
   675     0034                     ___flmul@prod:
   676                           
   677                           ; 4 bytes @ 0x14
   678     0034                     	ds	1
   679     0035                     ??_sprintf:
   680                           
   681                           ; 1 bytes @ 0x15
   682     0035                     	ds	1
   683     0036                     sprintf@ap:
   684                           
   685                           ; 1 bytes @ 0x16
   686     0036                     	ds	1
   687     0037                     sprintf@f:
   688                           
   689                           ; 11 bytes @ 0x17
   690     0037                     	ds	1
   691     0038                     ___flmul@temp:
   692                           
   693                           ; 2 bytes @ 0x18
   694     0038                     	ds	2
   695     003A                     ?___fldiv:
   696     003A                     ___fldiv@a:	
   697                           ; 4 bytes @ 0x1A
   698                           
   699                           
   700                           ; 4 bytes @ 0x1A
   701     003A                     	ds	4
   702     003E                     ___fldiv@b:
   703                           
   704                           ; 4 bytes @ 0x1E
   705     003E                     	ds	4
   706     0042                     ?_convert_uint16_to_string:
   707     0042                     convert_uint16_to_string@value:	
   708                           ; 1 bytes @ 0x22
   709                           
   710     0042                     ??___fldiv:	
   711                           ; 2 bytes @ 0x22
   712                           
   713                           
   714                           ; 1 bytes @ 0x22
   715     0042                     	ds	2
   716     0044                     convert_uint16_to_string@str:
   717                           
   718                           ; 1 bytes @ 0x24
   719     0044                     	ds	1
   720     0045                     ??_convert_uint16_to_string:
   721                           
   722                           ; 1 bytes @ 0x25
   723     0045                     	ds	2
   724     0047                     ___fldiv@rem:
   725     0047                     convert_uint16_to_string@Temp_String:	
   726                           ; 4 bytes @ 0x27
   727                           
   728                           
   729                           ; 6 bytes @ 0x27
   730     0047                     	ds	4
   731     004B                     ___fldiv@sign:
   732                           
   733                           ; 1 bytes @ 0x2B
   734     004B                     	ds	1
   735     004C                     ___fldiv@new_exp:
   736                           
   737                           ; 2 bytes @ 0x2C
   738     004C                     	ds	1
   739     004D                     convert_uint16_to_string@DataCounter:
   740                           
   741                           ; 1 bytes @ 0x2D
   742     004D                     	ds	1
   743     004E                     ___fldiv@grs:
   744                           
   745                           ; 4 bytes @ 0x2E
   746     004E                     	ds	4
   747     0052                     ___fldiv@bexp:
   748                           
   749                           ; 1 bytes @ 0x32
   750     0052                     	ds	1
   751     0053                     ___fldiv@aexp:
   752                           
   753                           ; 1 bytes @ 0x33
   754     0053                     	ds	1
   755     0054                     ?___fltol:
   756     0054                     ___fltol@f1:	
   757                           ; 4 bytes @ 0x34
   758                           
   759                           
   760                           ; 4 bytes @ 0x34
   761     0054                     	ds	4
   762     0058                     ??___fltol:
   763                           
   764                           ; 1 bytes @ 0x38
   765     0058                     	ds	4
   766     005C                     ___fltol@sign1:
   767                           
   768                           ; 1 bytes @ 0x3C
   769     005C                     	ds	1
   770     005D                     ___fltol@exp1:
   771                           
   772                           ; 1 bytes @ 0x3D
   773     005D                     	ds	1
   774     005E                     ?_adc_read:
   775                           
   776                           ; 2 bytes @ 0x3E
   777     005E                     	ds	2
   778     0060                     ??_adc_read:
   779                           
   780                           ; 1 bytes @ 0x40
   781     0060                     	ds	2
   782     0062                     adc_read@_adc_conversion_result:
   783                           
   784                           ; 2 bytes @ 0x42
   785     0062                     	ds	2
   786     0064                     ??_main:
   787                           
   788                           ; 1 bytes @ 0x44
   789     0064                     	ds	4
   790                           
   791                           	psect	maintext
   792     0127                     __pmaintext:	
   793 ;;
   794 ;;Main: autosize = 0, tempsize = 4, incstack = 0, save=0
   795 ;;
   796 ;; *************** function _main *****************
   797 ;; Defined at:
   798 ;;		line 46 in file "main.c"
   799 ;; Parameters:    Size  Location     Type
   800 ;;		None
   801 ;; Auto vars:     Size  Location     Type
   802 ;;		None
   803 ;; Return value:  Size  Location     Type
   804 ;;                  1    wreg      void 
   805 ;; Registers used:
   806 ;;		wreg, fsr0l, fsr0h, status,2, status,0, btemp+1, pclath, cstack
   807 ;; Tracked objects:
   808 ;;		On entry : B00/0
   809 ;;		On exit  : 0/0
   810 ;;		Unchanged: 0/0
   811 ;; Data sizes:     COMMON   BANK0   BANK1   BANK3   BANK2
   812 ;;      Params:         0       0       0       0       0
   813 ;;      Locals:         0       0       0       0       0
   814 ;;      Temps:          0       4       0       0       0
   815 ;;      Totals:         0       4       0       0       0
   816 ;;Total ram usage:        4 bytes
   817 ;; Hardware stack levels required when called: 6
   818 ;; This function calls:
   819 ;;		___fldiv
   820 ;;		___flmul
   821 ;;		___fltol
   822 ;;		___xxtofl
   823 ;;		_adc_initialize
   824 ;;		_adc_read
   825 ;;		_convert_uint16_to_string
   826 ;;		_lcd_4bit_clear
   827 ;;		_lcd_4bit_intialize
   828 ;;		_lcd_4bit_send_string
   829 ;;		_lcd_4bit_set_cursor
   830 ;;		_uart_send
   831 ;;		_uart_tx_initialize
   832 ;; This function is called by:
   833 ;;		Startup code after reset
   834 ;; This function uses a non-reentrant model
   835 ;;
   836                           
   837     0127                     _main:	
   838                           ;psect for function _main
   839                           
   840     0127                     l2207:	
   841                           ;incstack = 0
   842                           ; Regs used in _main: [wreg-fsr0h+status,2+status,0+btemp+1+pclath+cstack]
   843                           
   844                           
   845                           ;main.c: 48:     adc_initialize();
   846     0127  120A  158A  24FF  120A  118A  	fcall	_adc_initialize
   847     012C                     l2209:
   848                           
   849                           ;main.c: 49:     uart_tx_initialize();
   850     012C  120A  158A  244A  120A  118A  	fcall	_uart_tx_initialize
   851     0131                     l2211:
   852                           
   853                           ;main.c: 50:     lcd_4bit_intialize();
   854     0131  120A  158A  2644  120A  118A  	fcall	_lcd_4bit_intialize
   855     0136                     l2213:
   856                           
   857                           ;main.c: 51:     lcd_4bit_clear();
   858     0136  120A  158A  240C  120A  118A  	fcall	_lcd_4bit_clear
   859     013B                     l2215:
   860                           
   861                           ;main.c: 54:         adc_conversion_result = adc_read();
   862     013B  120A  158A  25F7  120A  118A  	fcall	_adc_read
   863     0140  1283               	bcf	3,5	;RP0=0, select bank0
   864     0141  1303               	bcf	3,6	;RP1=0, select bank0
   865     0142  085F               	movf	?_adc_read+1,w
   866     0143  00ED               	movwf	_adc_conversion_result+1
   867     0144  085E               	movf	?_adc_read,w
   868     0145  00EC               	movwf	_adc_conversion_result
   869     0146                     l2217:
   870                           
   871                           ;main.c: 55:         adc_output = adc_conversion_result * 4.88f / 100;
   872     0146  086C               	movf	_adc_conversion_result,w
   873     0147  00F0               	movwf	___xxtofl@val
   874     0148  086D               	movf	_adc_conversion_result+1,w
   875     0149  00F1               	movwf	___xxtofl@val+1
   876     014A  01F2               	clrf	___xxtofl@val+2
   877     014B  01F3               	clrf	___xxtofl@val+3
   878     014C  3000               	movlw	0
   879     014D  120A  118A  2073  120A  118A  	fcall	___xxtofl
   880     0152  0873               	movf	?___xxtofl+3,w
   881     0153  1283               	bcf	3,5	;RP0=0, select bank0
   882     0154  1303               	bcf	3,6	;RP1=0, select bank0
   883     0155  00A7               	movwf	___flmul@a+3
   884     0156  0872               	movf	?___xxtofl+2,w
   885     0157  00A6               	movwf	___flmul@a+2
   886     0158  0871               	movf	?___xxtofl+1,w
   887     0159  00A5               	movwf	___flmul@a+1
   888     015A  0870               	movf	?___xxtofl,w
   889     015B  00A4               	movwf	___flmul@a
   890     015C  3040               	movlw	64
   891     015D  00A3               	movwf	___flmul@b+3
   892     015E  309C               	movlw	156
   893     015F  00A2               	movwf	___flmul@b+2
   894     0160  3028               	movlw	40
   895     0161  00A1               	movwf	___flmul@b+1
   896     0162  30F6               	movlw	246
   897     0163  00A0               	movwf	___flmul@b
   898     0164  120A  118A  24A9  120A  118A  	fcall	___flmul
   899     0169  1283               	bcf	3,5	;RP0=0, select bank0
   900     016A  1303               	bcf	3,6	;RP1=0, select bank0
   901     016B  0823               	movf	?___flmul+3,w
   902     016C  00C1               	movwf	___fldiv@b+3
   903     016D  0822               	movf	?___flmul+2,w
   904     016E  00C0               	movwf	___fldiv@b+2
   905     016F  0821               	movf	?___flmul+1,w
   906     0170  00BF               	movwf	___fldiv@b+1
   907     0171  0820               	movf	?___flmul,w
   908     0172  00BE               	movwf	___fldiv@b
   909     0173  3042               	movlw	66
   910     0174  00BD               	movwf	___fldiv@a+3
   911     0175  30C8               	movlw	200
   912     0176  00BC               	movwf	___fldiv@a+2
   913     0177  3000               	movlw	0
   914     0178  00BB               	movwf	___fldiv@a+1
   915     0179  3000               	movlw	0
   916     017A  00BA               	movwf	___fldiv@a
   917     017B  120A  118A  22DF  120A  118A  	fcall	___fldiv
   918     0180  1283               	bcf	3,5	;RP0=0, select bank0
   919     0181  1303               	bcf	3,6	;RP1=0, select bank0
   920     0182  083D               	movf	?___fldiv+3,w
   921     0183  00D7               	movwf	___fltol@f1+3
   922     0184  083C               	movf	?___fldiv+2,w
   923     0185  00D6               	movwf	___fltol@f1+2
   924     0186  083B               	movf	?___fldiv+1,w
   925     0187  00D5               	movwf	___fltol@f1+1
   926     0188  083A               	movf	?___fldiv,w
   927     0189  00D4               	movwf	___fltol@f1
   928     018A  120A  158A  26F0  120A  118A  	fcall	___fltol
   929     018F  1283               	bcf	3,5	;RP0=0, select bank0
   930     0190  1303               	bcf	3,6	;RP1=0, select bank0
   931     0191  0854               	movf	?___fltol,w
   932     0192  00EF               	movwf	_adc_output
   933     0193                     l2219:
   934                           
   935                           ;main.c: 56:         adc_output = adc_output * 3.6;
   936     0193  086F               	movf	_adc_output,w
   937     0194  00E4               	movwf	??_main
   938     0195  01E5               	clrf	??_main+1
   939     0196  01E6               	clrf	??_main+2
   940     0197  01E7               	clrf	??_main+3
   941     0198  0867               	movf	??_main+3,w
   942     0199  00F3               	movwf	___xxtofl@val+3
   943     019A  0866               	movf	??_main+2,w
   944     019B  00F2               	movwf	___xxtofl@val+2
   945     019C  0865               	movf	??_main+1,w
   946     019D  00F1               	movwf	___xxtofl@val+1
   947     019E  0864               	movf	??_main,w
   948     019F  00F0               	movwf	___xxtofl@val
   949     01A0  3001               	movlw	1
   950     01A1  120A  118A  2073  120A  118A  	fcall	___xxtofl
   951     01A6  0873               	movf	?___xxtofl+3,w
   952     01A7  1283               	bcf	3,5	;RP0=0, select bank0
   953     01A8  1303               	bcf	3,6	;RP1=0, select bank0
   954     01A9  00A7               	movwf	___flmul@a+3
   955     01AA  0872               	movf	?___xxtofl+2,w
   956     01AB  00A6               	movwf	___flmul@a+2
   957     01AC  0871               	movf	?___xxtofl+1,w
   958     01AD  00A5               	movwf	___flmul@a+1
   959     01AE  0870               	movf	?___xxtofl,w
   960     01AF  00A4               	movwf	___flmul@a
   961     01B0  3040               	movlw	64
   962     01B1  00A3               	movwf	___flmul@b+3
   963     01B2  3066               	movlw	102
   964     01B3  00A2               	movwf	___flmul@b+2
   965     01B4  3066               	movlw	102
   966     01B5  00A1               	movwf	___flmul@b+1
   967     01B6  3066               	movlw	102
   968     01B7  00A0               	movwf	___flmul@b
   969     01B8  120A  118A  24A9  120A  118A  	fcall	___flmul
   970     01BD  1283               	bcf	3,5	;RP0=0, select bank0
   971     01BE  1303               	bcf	3,6	;RP1=0, select bank0
   972     01BF  0823               	movf	?___flmul+3,w
   973     01C0  00D7               	movwf	___fltol@f1+3
   974     01C1  0822               	movf	?___flmul+2,w
   975     01C2  00D6               	movwf	___fltol@f1+2
   976     01C3  0821               	movf	?___flmul+1,w
   977     01C4  00D5               	movwf	___fltol@f1+1
   978     01C5  0820               	movf	?___flmul,w
   979     01C6  00D4               	movwf	___fltol@f1
   980     01C7  120A  158A  26F0  120A  118A  	fcall	___fltol
   981     01CC  1283               	bcf	3,5	;RP0=0, select bank0
   982     01CD  1303               	bcf	3,6	;RP1=0, select bank0
   983     01CE  0854               	movf	?___fltol,w
   984     01CF  00EF               	movwf	_adc_output
   985     01D0                     l2221:
   986                           
   987                           ;main.c: 57:         uart_send(adc_output);
   988     01D0  086F               	movf	_adc_output,w
   989     01D1  120A  118A  2005  120A  118A  	fcall	_uart_send
   990     01D6                     l2223:
   991                           
   992                           ;main.c: 58:         convert_uint16_to_string(adc_output, adc_res_real_txt);
   993     01D6  1283               	bcf	3,5	;RP0=0, select bank0
   994     01D7  1303               	bcf	3,6	;RP1=0, select bank0
   995     01D8  086F               	movf	_adc_output,w
   996     01D9  00E4               	movwf	??_main
   997     01DA  01E5               	clrf	??_main+1
   998     01DB  0864               	movf	??_main,w
   999     01DC  00C2               	movwf	convert_uint16_to_string@value
  1000     01DD  0865               	movf	??_main+1,w
  1001     01DE  00C3               	movwf	convert_uint16_to_string@value+1
  1002     01DF  30C6               	movlw	(low (_adc_res_real_txt| 0))& (0+255)
  1003     01E0  00C4               	movwf	convert_uint16_to_string@str
  1004     01E1  120A  158A  25AD  120A  118A  	fcall	_convert_uint16_to_string
  1005     01E6                     l2225:
  1006                           
  1007                           ;main.c: 59:         lcd_4bit_set_cursor(1, 1);
  1008     01E6  01F5               	clrf	lcd_4bit_set_cursor@coulmn
  1009     01E7  0AF5               	incf	lcd_4bit_set_cursor@coulmn,f
  1010     01E8  3001               	movlw	1
  1011     01E9  120A  158A  2479  120A  118A  	fcall	_lcd_4bit_set_cursor
  1012     01EE                     l2227:
  1013                           
  1014                           ;main.c: 60:         lcd_4bit_send_string(adc_res_real_txt);
  1015     01EE  30C6               	movlw	(low (_adc_res_real_txt| 0))& (0+255)
  1016     01EF  00F5               	movwf	lcd_4bit_send_string@str
  1017     01F0  120A  158A  2436  120A  118A  	fcall	_lcd_4bit_send_string
  1018     01F5  293B               	goto	l2215
  1019     01F6  120A  118A  2800   	ljmp	start
  1020     01F9                     __end_of_main:
  1021                           
  1022                           	psect	text1
  1023     0C4A                     __ptext1:	
  1024 ;; *************** function _uart_tx_initialize *****************
  1025 ;; Defined at:
  1026 ;;		line 111 in file "main.c"
  1027 ;; Parameters:    Size  Location     Type
  1028 ;;		None
  1029 ;; Auto vars:     Size  Location     Type
  1030 ;;		None
  1031 ;; Return value:  Size  Location     Type
  1032 ;;                  1    wreg      void 
  1033 ;; Registers used:
  1034 ;;		None
  1035 ;; Tracked objects:
  1036 ;;		On entry : 0/0
  1037 ;;		On exit  : 0/0
  1038 ;;		Unchanged: 0/0
  1039 ;; Data sizes:     COMMON   BANK0   BANK1   BANK3   BANK2
  1040 ;;      Params:         0       0       0       0       0
  1041 ;;      Locals:         0       0       0       0       0
  1042 ;;      Temps:          0       0       0       0       0
  1043 ;;      Totals:         0       0       0       0       0
  1044 ;;Total ram usage:        0 bytes
  1045 ;; Hardware stack levels used: 1
  1046 ;; This function calls:
  1047 ;;		Nothing
  1048 ;; This function is called by:
  1049 ;;		_main
  1050 ;; This function uses a non-reentrant model
  1051 ;;
  1052                           
  1053     0C4A                     _uart_tx_initialize:	
  1054                           ;psect for function _uart_tx_initialize
  1055                           
  1056     0C4A                     l1845:	
  1057                           ;incstack = 0
  1058                           ; Regs used in _uart_tx_initialize: []
  1059                           
  1060                           
  1061                           ;main.c: 112:      TRISC6 = 0;
  1062     0C4A  1683               	bsf	3,5	;RP0=1, select bank1
  1063     0C4B  1303               	bcf	3,6	;RP1=0, select bank1
  1064     0C4C  1307               	bcf	7,6	;volatile
  1065                           
  1066                           ;main.c: 113:      TRISC7 = 1;
  1067     0C4D  1787               	bsf	7,7	;volatile
  1068                           
  1069                           ;main.c: 118:      SYNC = 0;
  1070     0C4E  1218               	bcf	24,4	;volatile
  1071                           
  1072                           ;main.c: 119:      BRG16 = 0;
  1073     0C4F  1683               	bsf	3,5	;RP0=1, select bank3
  1074     0C50  1703               	bsf	3,6	;RP1=1, select bank3
  1075     0C51  1187               	bcf	7,3	;volatile
  1076                           
  1077                           ;main.c: 120:      BRGH = 1;
  1078     0C52  1683               	bsf	3,5	;RP0=1, select bank1
  1079     0C53  1303               	bcf	3,6	;RP1=0, select bank1
  1080     0C54  1518               	bsf	24,2	;volatile
  1081                           
  1082                           ;main.c: 121:      SPBRG = 25;
  1083     0C55  3019               	movlw	25
  1084     0C56  0099               	movwf	25	;volatile
  1085                           
  1086                           ;main.c: 124:      SYNC = 0;
  1087     0C57  1218               	bcf	24,4	;volatile
  1088                           
  1089                           ;main.c: 125:      SPEN = 1;
  1090     0C58  1283               	bcf	3,5	;RP0=0, select bank0
  1091     0C59  1303               	bcf	3,6	;RP1=0, select bank0
  1092     0C5A  1798               	bsf	24,7	;volatile
  1093                           
  1094                           ;main.c: 128:      TX9 = 0;
  1095     0C5B  1683               	bsf	3,5	;RP0=1, select bank1
  1096     0C5C  1303               	bcf	3,6	;RP1=0, select bank1
  1097     0C5D  1318               	bcf	24,6	;volatile
  1098                           
  1099                           ;main.c: 131:      TXEN = 1;
  1100     0C5E  1698               	bsf	24,5	;volatile
  1101     0C5F                     l114:
  1102     0C5F  0008               	return
  1103     0C60                     __end_of_uart_tx_initialize:
  1104                           
  1105                           	psect	text2
  1106     0005                     __ptext2:	
  1107 ;; *************** function _uart_send *****************
  1108 ;; Defined at:
  1109 ;;		line 157 in file "main.c"
  1110 ;; Parameters:    Size  Location     Type
  1111 ;;  value           1    wreg     unsigned char 
  1112 ;; Auto vars:     Size  Location     Type
  1113 ;;  value           1    0[COMMON] unsigned char 
  1114 ;; Return value:  Size  Location     Type
  1115 ;;                  1    wreg      void 
  1116 ;; Registers used:
  1117 ;;		wreg
  1118 ;; Tracked objects:
  1119 ;;		On entry : 0/0
  1120 ;;		On exit  : 0/0
  1121 ;;		Unchanged: 0/0
  1122 ;; Data sizes:     COMMON   BANK0   BANK1   BANK3   BANK2
  1123 ;;      Params:         0       0       0       0       0
  1124 ;;      Locals:         1       0       0       0       0
  1125 ;;      Temps:          0       0       0       0       0
  1126 ;;      Totals:         1       0       0       0       0
  1127 ;;Total ram usage:        1 bytes
  1128 ;; Hardware stack levels used: 1
  1129 ;; This function calls:
  1130 ;;		Nothing
  1131 ;; This function is called by:
  1132 ;;		_main
  1133 ;; This function uses a non-reentrant model
  1134 ;;
  1135                           
  1136     0005                     _uart_send:	
  1137                           ;psect for function _uart_send
  1138                           
  1139                           
  1140                           ;incstack = 0
  1141                           ; Regs used in _uart_send: [wreg]
  1142                           ;uart_send@value stored from wreg
  1143     0005  00F0               	movwf	uart_send@value
  1144     0006                     l1887:
  1145                           
  1146                           ;main.c: 158:      TXREG = value;
  1147     0006  0870               	movf	uart_send@value,w
  1148     0007  1283               	bcf	3,5	;RP0=0, select bank0
  1149     0008  1303               	bcf	3,6	;RP1=0, select bank0
  1150     0009  0099               	movwf	25	;volatile
  1151     000A                     l120:	
  1152                           ;main.c: 159:      while (TXIF != 1);
  1153                           
  1154     000A  1E0C               	btfss	12,4	;volatile
  1155     000B  280D               	goto	u2121
  1156     000C  280E               	goto	u2120
  1157     000D                     u2121:
  1158     000D  280A               	goto	l120
  1159     000E                     u2120:
  1160     000E                     l122:
  1161                           
  1162                           ;main.c: 160:      TXIF = 0;
  1163     000E  120C               	bcf	12,4	;volatile
  1164     000F                     l123:
  1165     000F  0008               	return
  1166     0010                     __end_of_uart_send:
  1167                           
  1168                           	psect	text3
  1169     0C79                     __ptext3:	
  1170 ;; *************** function _lcd_4bit_set_cursor *****************
  1171 ;; Defined at:
  1172 ;;		line 237 in file "main.c"
  1173 ;; Parameters:    Size  Location     Type
  1174 ;;  row             1    wreg     unsigned char 
  1175 ;;  coulmn          1    5[COMMON] unsigned char 
  1176 ;; Auto vars:     Size  Location     Type
  1177 ;;  row             1    6[COMMON] unsigned char 
  1178 ;; Return value:  Size  Location     Type
  1179 ;;                  1    wreg      void 
  1180 ;; Registers used:
  1181 ;;		wreg, fsr0l, fsr0h, status,2, status,0, pclath, cstack
  1182 ;; Tracked objects:
  1183 ;;		On entry : 0/0
  1184 ;;		On exit  : 0/0
  1185 ;;		Unchanged: 0/0
  1186 ;; Data sizes:     COMMON   BANK0   BANK1   BANK3   BANK2
  1187 ;;      Params:         1       0       0       0       0
  1188 ;;      Locals:         1       0       0       0       0
  1189 ;;      Temps:          0       0       0       0       0
  1190 ;;      Totals:         2       0       0       0       0
  1191 ;;Total ram usage:        2 bytes
  1192 ;; Hardware stack levels used: 1
  1193 ;; Hardware stack levels required when called: 2
  1194 ;; This function calls:
  1195 ;;		_lcd_4bit_send_command
  1196 ;; This function is called by:
  1197 ;;		_main
  1198 ;; This function uses a non-reentrant model
  1199 ;;
  1200                           
  1201     0C79                     _lcd_4bit_set_cursor:	
  1202                           ;psect for function _lcd_4bit_set_cursor
  1203                           
  1204                           
  1205                           ;incstack = 0
  1206                           ; Regs used in _lcd_4bit_set_cursor: [wreg-fsr0h+status,2+status,0+pclath+cstack]
  1207                           ;lcd_4bit_set_cursor@row stored from wreg
  1208     0C79  00F6               	movwf	lcd_4bit_set_cursor@row
  1209     0C7A                     l1905:
  1210                           
  1211                           ;main.c: 238:      coulmn--;
  1212     0C7A  3001               	movlw	1
  1213     0C7B  02F5               	subwf	lcd_4bit_set_cursor@coulmn,f
  1214                           
  1215                           ;main.c: 239:      switch (row) {
  1216     0C7C  2C8D               	goto	l1911
  1217     0C7D                     l1907:
  1218     0C7D  0875               	movf	lcd_4bit_set_cursor@coulmn,w
  1219     0C7E  3E80               	addlw	128
  1220     0C7F  120A  158A  24B9  120A  158A  	fcall	_lcd_4bit_send_command
  1221                           
  1222                           ;main.c: 241:              break;
  1223     0C84  2C95               	goto	l152
  1224     0C85                     l1909:
  1225     0C85  0875               	movf	lcd_4bit_set_cursor@coulmn,w
  1226     0C86  3EC0               	addlw	192
  1227     0C87  120A  158A  24B9  120A  158A  	fcall	_lcd_4bit_send_command
  1228                           
  1229                           ;main.c: 243:              break;
  1230     0C8C  2C95               	goto	l152
  1231     0C8D                     l1911:
  1232     0C8D  0876               	movf	lcd_4bit_set_cursor@row,w
  1233                           
  1234                           ; Switch size 1, requested type "simple"
  1235                           ; Number of cases is 2, Range of values is 1 to 2
  1236                           ; switch strategies available:
  1237                           ; Name         Instructions Cycles
  1238                           ; simple_byte            7     4 (average)
  1239                           ; direct_byte           17    11 (fixed)
  1240                           ; jumptable            263     9 (fixed)
  1241                           ;	Chosen strategy is simple_byte
  1242     0C8E  3A01               	xorlw	1	; case 1
  1243     0C8F  1903               	skipnz
  1244     0C90  2C7D               	goto	l1907
  1245     0C91  3A03               	xorlw	3	; case 2
  1246     0C92  1903               	skipnz
  1247     0C93  2C85               	goto	l1909
  1248     0C94  2C95               	goto	l152
  1249     0C95                     l152:
  1250     0C95  0008               	return
  1251     0C96                     __end_of_lcd_4bit_set_cursor:
  1252                           
  1253                           	psect	text4
  1254     0C36                     __ptext4:	
  1255 ;; *************** function _lcd_4bit_send_string *****************
  1256 ;; Defined at:
  1257 ;;		line 248 in file "main.c"
  1258 ;; Parameters:    Size  Location     Type
  1259 ;;  str             1    5[COMMON] PTR unsigned char 
  1260 ;;		 -> adc_res_real_txt(7), 
  1261 ;; Auto vars:     Size  Location     Type
  1262 ;;		None
  1263 ;; Return value:  Size  Location     Type
  1264 ;;                  1    wreg      void 
  1265 ;; Registers used:
  1266 ;;		wreg, fsr0l, fsr0h, status,2, status,0, pclath, cstack
  1267 ;; Tracked objects:
  1268 ;;		On entry : 0/0
  1269 ;;		On exit  : 0/0
  1270 ;;		Unchanged: 0/0
  1271 ;; Data sizes:     COMMON   BANK0   BANK1   BANK3   BANK2
  1272 ;;      Params:         1       0       0       0       0
  1273 ;;      Locals:         0       0       0       0       0
  1274 ;;      Temps:          0       0       0       0       0
  1275 ;;      Totals:         1       0       0       0       0
  1276 ;;Total ram usage:        1 bytes
  1277 ;; Hardware stack levels used: 1
  1278 ;; Hardware stack levels required when called: 2
  1279 ;; This function calls:
  1280 ;;		_lcd_4bit_send_char_data
  1281 ;; This function is called by:
  1282 ;;		_main
  1283 ;; This function uses a non-reentrant model
  1284 ;;
  1285                           
  1286     0C36                     _lcd_4bit_send_string:	
  1287                           ;psect for function _lcd_4bit_send_string
  1288                           
  1289     0C36                     l1913:	
  1290                           ;incstack = 0
  1291                           ; Regs used in _lcd_4bit_send_string: [wreg-fsr0h+status,2+status,0+pclath+cstack]
  1292                           
  1293                           
  1294                           ;main.c: 249:      while (*str) {
  1295     0C36  2C41               	goto	l1919
  1296     0C37                     l1915:
  1297                           
  1298                           ;main.c: 250:          lcd_4bit_send_char_data(*str++);
  1299     0C37  0875               	movf	lcd_4bit_send_string@str,w
  1300     0C38  0084               	movwf	4
  1301     0C39  0800               	movf	0,w
  1302     0C3A  120A  158A  24DC  120A  158A  	fcall	_lcd_4bit_send_char_data
  1303     0C3F                     l1917:
  1304     0C3F  3001               	movlw	1
  1305     0C40  07F5               	addwf	lcd_4bit_send_string@str,f
  1306     0C41                     l1919:
  1307                           
  1308                           ;main.c: 249:      while (*str) {
  1309     0C41  0875               	movf	lcd_4bit_send_string@str,w
  1310     0C42  0084               	movwf	4
  1311     0C43  1383               	bcf	3,7	;select IRP bank0
  1312     0C44  0800               	movf	0,w
  1313     0C45  1D03               	btfss	3,2
  1314     0C46  2C48               	goto	u2151
  1315     0C47  2C49               	goto	u2150
  1316     0C48                     u2151:
  1317     0C48  2C37               	goto	l1915
  1318     0C49                     u2150:
  1319     0C49                     l158:
  1320     0C49  0008               	return
  1321     0C4A                     __end_of_lcd_4bit_send_string:
  1322                           
  1323                           	psect	text5
  1324     0CDC                     __ptext5:	
  1325 ;; *************** function _lcd_4bit_send_char_data *****************
  1326 ;; Defined at:
  1327 ;;		line 223 in file "main.c"
  1328 ;; Parameters:    Size  Location     Type
  1329 ;;  data            1    wreg     unsigned char 
  1330 ;; Auto vars:     Size  Location     Type
  1331 ;;  data            1    4[COMMON] unsigned char 
  1332 ;; Return value:  Size  Location     Type
  1333 ;;                  1    wreg      void 
  1334 ;; Registers used:
  1335 ;;		wreg, status,2, status,0, pclath, cstack
  1336 ;; Tracked objects:
  1337 ;;		On entry : 0/0
  1338 ;;		On exit  : 0/0
  1339 ;;		Unchanged: 0/0
  1340 ;; Data sizes:     COMMON   BANK0   BANK1   BANK3   BANK2
  1341 ;;      Params:         0       0       0       0       0
  1342 ;;      Locals:         1       0       0       0       0
  1343 ;;      Temps:          1       0       0       0       0
  1344 ;;      Totals:         2       0       0       0       0
  1345 ;;Total ram usage:        2 bytes
  1346 ;; Hardware stack levels used: 1
  1347 ;; Hardware stack levels required when called: 1
  1348 ;; This function calls:
  1349 ;;		_lcd_4bit_send_enable_signal
  1350 ;;		_lcd_send_4bits
  1351 ;; This function is called by:
  1352 ;;		_lcd_4bit_send_string
  1353 ;; This function uses a non-reentrant model
  1354 ;;
  1355                           
  1356     0CDC                     _lcd_4bit_send_char_data:	
  1357                           ;psect for function _lcd_4bit_send_char_data
  1358                           
  1359                           
  1360                           ;incstack = 0
  1361                           ; Regs used in _lcd_4bit_send_char_data: [wreg+status,2+status,0+pclath+cstack]
  1362                           ;lcd_4bit_send_char_data@data stored from wreg
  1363     0CDC  00F4               	movwf	lcd_4bit_send_char_data@data
  1364     0CDD                     l1697:
  1365                           
  1366                           ;main.c: 226:      PORTDbits.RD4 = 1;
  1367     0CDD  1283               	bcf	3,5	;RP0=0, select bank0
  1368     0CDE  1303               	bcf	3,6	;RP1=0, select bank0
  1369     0CDF  1608               	bsf	8,4	;volatile
  1370     0CE0                     l1699:
  1371                           
  1372                           ;main.c: 228:      lcd_send_4bits(data >> 4);
  1373     0CE0  0874               	movf	lcd_4bit_send_char_data@data,w
  1374     0CE1  00F3               	movwf	??_lcd_4bit_send_char_data
  1375     0CE2  3004               	movlw	4
  1376     0CE3                     u1815:
  1377     0CE3  1003               	clrc
  1378     0CE4  0CF3               	rrf	??_lcd_4bit_send_char_data,f
  1379     0CE5  3EFF               	addlw	-1
  1380     0CE6  1D03               	skipz
  1381     0CE7  2CE3               	goto	u1815
  1382     0CE8  0873               	movf	??_lcd_4bit_send_char_data,w
  1383     0CE9  120A  158A  2570  120A  158A  	fcall	_lcd_send_4bits
  1384     0CEE                     l1701:
  1385                           
  1386                           ;main.c: 230:      lcd_4bit_send_enable_signal();
  1387     0CEE  120A  158A  241B  120A  158A  	fcall	_lcd_4bit_send_enable_signal
  1388     0CF3                     l1703:
  1389                           
  1390                           ;main.c: 232:      lcd_send_4bits(data);
  1391     0CF3  0874               	movf	lcd_4bit_send_char_data@data,w
  1392     0CF4  120A  158A  2570  120A  158A  	fcall	_lcd_send_4bits
  1393                           
  1394                           ;main.c: 234:      lcd_4bit_send_enable_signal();
  1395     0CF9  120A  158A  241B  120A  158A  	fcall	_lcd_4bit_send_enable_signal
  1396     0CFE                     l144:
  1397     0CFE  0008               	return
  1398     0CFF                     __end_of_lcd_4bit_send_char_data:
  1399                           
  1400                           	psect	text6
  1401     0E44                     __ptext6:	
  1402 ;; *************** function _lcd_4bit_intialize *****************
  1403 ;; Defined at:
  1404 ;;		line 172 in file "main.c"
  1405 ;; Parameters:    Size  Location     Type
  1406 ;;		None
  1407 ;; Auto vars:     Size  Location     Type
  1408 ;;		None
  1409 ;; Return value:  Size  Location     Type
  1410 ;;                  1    wreg      void 
  1411 ;; Registers used:
  1412 ;;		wreg, status,2, status,0, pclath, cstack
  1413 ;; Tracked objects:
  1414 ;;		On entry : 0/0
  1415 ;;		On exit  : 0/0
  1416 ;;		Unchanged: 0/0
  1417 ;; Data sizes:     COMMON   BANK0   BANK1   BANK3   BANK2
  1418 ;;      Params:         0       0       0       0       0
  1419 ;;      Locals:         0       0       0       0       0
  1420 ;;      Temps:          2       0       0       0       0
  1421 ;;      Totals:         2       0       0       0       0
  1422 ;;Total ram usage:        2 bytes
  1423 ;; Hardware stack levels used: 1
  1424 ;; Hardware stack levels required when called: 2
  1425 ;; This function calls:
  1426 ;;		_lcd_4bit_send_command
  1427 ;; This function is called by:
  1428 ;;		_main
  1429 ;; This function uses a non-reentrant model
  1430 ;;
  1431                           
  1432     0E44                     _lcd_4bit_intialize:	
  1433                           ;psect for function _lcd_4bit_intialize
  1434                           
  1435     0E44                     l1847:	
  1436                           ;incstack = 0
  1437                           ; Regs used in _lcd_4bit_intialize: [wreg+status,2+status,0+pclath+cstack]
  1438                           
  1439                           
  1440                           ;main.c: 174:      TRISD0 = 0;
  1441     0E44  1683               	bsf	3,5	;RP0=1, select bank1
  1442     0E45  1303               	bcf	3,6	;RP1=0, select bank1
  1443     0E46  1008               	bcf	8,0	;volatile
  1444                           
  1445                           ;main.c: 175:      TRISD1 = 0;
  1446     0E47  1088               	bcf	8,1	;volatile
  1447                           
  1448                           ;main.c: 176:      TRISD2 = 0;
  1449     0E48  1108               	bcf	8,2	;volatile
  1450                           
  1451                           ;main.c: 177:      TRISD3 = 0;
  1452     0E49  1188               	bcf	8,3	;volatile
  1453                           
  1454                           ;main.c: 178:      TRISD4 = 0;
  1455     0E4A  1208               	bcf	8,4	;volatile
  1456                           
  1457                           ;main.c: 179:      TRISD5 = 0;
  1458     0E4B  1288               	bcf	8,5	;volatile
  1459     0E4C                     l1849:
  1460                           
  1461                           ;main.c: 181:      _delay((unsigned long)((20)*(4000000UL/4000.0)));
  1462     0E4C  301A               	movlw	26
  1463     0E4D  00F6               	movwf	??_lcd_4bit_intialize+1
  1464     0E4E  30F8               	movlw	248
  1465     0E4F  00F5               	movwf	??_lcd_4bit_intialize
  1466     0E50                     u2827:
  1467     0E50  0BF5               	decfsz	??_lcd_4bit_intialize,f
  1468     0E51  2E50               	goto	u2827
  1469     0E52  0BF6               	decfsz	??_lcd_4bit_intialize+1,f
  1470     0E53  2E50               	goto	u2827
  1471     0E54  0000               	nop
  1472     0E55                     l1851:
  1473                           
  1474                           ;main.c: 182:      lcd_4bit_send_command(0x38);
  1475     0E55  3038               	movlw	56
  1476     0E56  120A  158A  24B9  120A  158A  	fcall	_lcd_4bit_send_command
  1477     0E5B                     l1853:
  1478                           
  1479                           ;main.c: 183:      _delay((unsigned long)((5)*(4000000UL/4000.0)));
  1480     0E5B  3007               	movlw	7
  1481     0E5C  00F6               	movwf	??_lcd_4bit_intialize+1
  1482     0E5D  307D               	movlw	125
  1483     0E5E  00F5               	movwf	??_lcd_4bit_intialize
  1484     0E5F                     u2837:
  1485     0E5F  0BF5               	decfsz	??_lcd_4bit_intialize,f
  1486     0E60  2E5F               	goto	u2837
  1487     0E61  0BF6               	decfsz	??_lcd_4bit_intialize+1,f
  1488     0E62  2E5F               	goto	u2837
  1489                           
  1490                           ;main.c: 184:      lcd_4bit_send_command(0x38);
  1491     0E63  3038               	movlw	56
  1492     0E64  120A  158A  24B9  120A  158A  	fcall	_lcd_4bit_send_command
  1493     0E69                     l1855:
  1494                           
  1495                           ;main.c: 185:      _delay((unsigned long)((150)*(4000000UL/4000000.0)));
  1496     0E69  3031               	movlw	49
  1497     0E6A  00F5               	movwf	??_lcd_4bit_intialize
  1498     0E6B                     u2847:
  1499     0E6B  0BF5               	decfsz	??_lcd_4bit_intialize,f
  1500     0E6C  2E6B               	goto	u2847
  1501     0E6D  2E6E               	nop2
  1502     0E6E                     l1857:
  1503                           
  1504                           ;main.c: 186:      lcd_4bit_send_command(0x38);
  1505     0E6E  3038               	movlw	56
  1506     0E6F  120A  158A  24B9  120A  158A  	fcall	_lcd_4bit_send_command
  1507     0E74                     l1859:
  1508                           
  1509                           ;main.c: 188:      lcd_4bit_send_command(0X01);
  1510     0E74  3001               	movlw	1
  1511     0E75  120A  158A  24B9  120A  158A  	fcall	_lcd_4bit_send_command
  1512     0E7A                     l1861:
  1513                           
  1514                           ;main.c: 189:      lcd_4bit_send_command(0x02);
  1515     0E7A  3002               	movlw	2
  1516     0E7B  120A  158A  24B9  120A  158A  	fcall	_lcd_4bit_send_command
  1517     0E80                     l1863:
  1518                           
  1519                           ;main.c: 190:      lcd_4bit_send_command(0x06);
  1520     0E80  3006               	movlw	6
  1521     0E81  120A  158A  24B9  120A  158A  	fcall	_lcd_4bit_send_command
  1522     0E86                     l1865:
  1523                           
  1524                           ;main.c: 191:      lcd_4bit_send_command(0x0C);
  1525     0E86  300C               	movlw	12
  1526     0E87  120A  158A  24B9  120A  158A  	fcall	_lcd_4bit_send_command
  1527     0E8C                     l1867:
  1528                           
  1529                           ;main.c: 192:      lcd_4bit_send_command(0x28);
  1530     0E8C  3028               	movlw	40
  1531     0E8D  120A  158A  24B9  120A  158A  	fcall	_lcd_4bit_send_command
  1532     0E92                     l1869:
  1533                           
  1534                           ;main.c: 193:      lcd_4bit_send_command(0x80);
  1535     0E92  3080               	movlw	128
  1536     0E93  120A  158A  24B9  120A  158A  	fcall	_lcd_4bit_send_command
  1537     0E98                     l132:
  1538     0E98  0008               	return
  1539     0E99                     __end_of_lcd_4bit_intialize:
  1540                           
  1541                           	psect	text7
  1542     0C0C                     __ptext7:	
  1543 ;; *************** function _lcd_4bit_clear *****************
  1544 ;; Defined at:
  1545 ;;		line 254 in file "main.c"
  1546 ;; Parameters:    Size  Location     Type
  1547 ;;		None
  1548 ;; Auto vars:     Size  Location     Type
  1549 ;;		None
  1550 ;; Return value:  Size  Location     Type
  1551 ;;                  1    wreg      void 
  1552 ;; Registers used:
  1553 ;;		wreg, status,2, status,0, pclath, cstack
  1554 ;; Tracked objects:
  1555 ;;		On entry : 0/0
  1556 ;;		On exit  : 0/0
  1557 ;;		Unchanged: 0/0
  1558 ;; Data sizes:     COMMON   BANK0   BANK1   BANK3   BANK2
  1559 ;;      Params:         0       0       0       0       0
  1560 ;;      Locals:         0       0       0       0       0
  1561 ;;      Temps:          0       0       0       0       0
  1562 ;;      Totals:         0       0       0       0       0
  1563 ;;Total ram usage:        0 bytes
  1564 ;; Hardware stack levels used: 1
  1565 ;; Hardware stack levels required when called: 2
  1566 ;; This function calls:
  1567 ;;		_lcd_4bit_send_command
  1568 ;; This function is called by:
  1569 ;;		_main
  1570 ;; This function uses a non-reentrant model
  1571 ;;
  1572                           
  1573     0C0C                     _lcd_4bit_clear:	
  1574                           ;psect for function _lcd_4bit_clear
  1575                           
  1576     0C0C                     l1871:	
  1577                           ;incstack = 0
  1578                           ; Regs used in _lcd_4bit_clear: [wreg+status,2+status,0+pclath+cstack]
  1579                           
  1580                           
  1581                           ;main.c: 255:      lcd_4bit_send_command(0X01);
  1582     0C0C  3001               	movlw	1
  1583     0C0D  120A  158A  24B9  120A  158A  	fcall	_lcd_4bit_send_command
  1584     0C12                     l161:
  1585     0C12  0008               	return
  1586     0C13                     __end_of_lcd_4bit_clear:
  1587                           
  1588                           	psect	text8
  1589     0CB9                     __ptext8:	
  1590 ;; *************** function _lcd_4bit_send_command *****************
  1591 ;; Defined at:
  1592 ;;		line 196 in file "main.c"
  1593 ;; Parameters:    Size  Location     Type
  1594 ;;  command         1    wreg     unsigned char 
  1595 ;; Auto vars:     Size  Location     Type
  1596 ;;  command         1    4[COMMON] unsigned char 
  1597 ;; Return value:  Size  Location     Type
  1598 ;;                  1    wreg      void 
  1599 ;; Registers used:
  1600 ;;		wreg, status,2, status,0, pclath, cstack
  1601 ;; Tracked objects:
  1602 ;;		On entry : 0/0
  1603 ;;		On exit  : 0/0
  1604 ;;		Unchanged: 0/0
  1605 ;; Data sizes:     COMMON   BANK0   BANK1   BANK3   BANK2
  1606 ;;      Params:         0       0       0       0       0
  1607 ;;      Locals:         1       0       0       0       0
  1608 ;;      Temps:          1       0       0       0       0
  1609 ;;      Totals:         2       0       0       0       0
  1610 ;;Total ram usage:        2 bytes
  1611 ;; Hardware stack levels used: 1
  1612 ;; Hardware stack levels required when called: 1
  1613 ;; This function calls:
  1614 ;;		_lcd_4bit_send_enable_signal
  1615 ;;		_lcd_send_4bits
  1616 ;; This function is called by:
  1617 ;;		_lcd_4bit_intialize
  1618 ;;		_lcd_4bit_set_cursor
  1619 ;;		_lcd_4bit_clear
  1620 ;; This function uses a non-reentrant model
  1621 ;;
  1622                           
  1623     0CB9                     _lcd_4bit_send_command:	
  1624                           ;psect for function _lcd_4bit_send_command
  1625                           
  1626                           
  1627                           ;incstack = 0
  1628                           ; Regs used in _lcd_4bit_send_command: [wreg+status,2+status,0+pclath+cstack]
  1629                           ;lcd_4bit_send_command@command stored from wreg
  1630     0CB9  00F4               	movwf	lcd_4bit_send_command@command
  1631     0CBA                     l1689:
  1632                           
  1633                           ;main.c: 199:      PORTDbits.RD4 = 0;
  1634     0CBA  1283               	bcf	3,5	;RP0=0, select bank0
  1635     0CBB  1303               	bcf	3,6	;RP1=0, select bank0
  1636     0CBC  1208               	bcf	8,4	;volatile
  1637     0CBD                     l1691:
  1638                           
  1639                           ;main.c: 201:      lcd_send_4bits(command >> 4);
  1640     0CBD  0874               	movf	lcd_4bit_send_command@command,w
  1641     0CBE  00F3               	movwf	??_lcd_4bit_send_command
  1642     0CBF  3004               	movlw	4
  1643     0CC0                     u1805:
  1644     0CC0  1003               	clrc
  1645     0CC1  0CF3               	rrf	??_lcd_4bit_send_command,f
  1646     0CC2  3EFF               	addlw	-1
  1647     0CC3  1D03               	skipz
  1648     0CC4  2CC0               	goto	u1805
  1649     0CC5  0873               	movf	??_lcd_4bit_send_command,w
  1650     0CC6  120A  158A  2570  120A  158A  	fcall	_lcd_send_4bits
  1651     0CCB                     l1693:
  1652                           
  1653                           ;main.c: 203:      lcd_4bit_send_enable_signal();
  1654     0CCB  120A  158A  241B  120A  158A  	fcall	_lcd_4bit_send_enable_signal
  1655     0CD0                     l1695:
  1656                           
  1657                           ;main.c: 205:      lcd_send_4bits(command);
  1658     0CD0  0874               	movf	lcd_4bit_send_command@command,w
  1659     0CD1  120A  158A  2570  120A  158A  	fcall	_lcd_send_4bits
  1660                           
  1661                           ;main.c: 207:      lcd_4bit_send_enable_signal();
  1662     0CD6  120A  158A  241B  120A  158A  	fcall	_lcd_4bit_send_enable_signal
  1663     0CDB                     l135:
  1664     0CDB  0008               	return
  1665     0CDC                     __end_of_lcd_4bit_send_command:
  1666                           
  1667                           	psect	text9
  1668     0D70                     __ptext9:	
  1669 ;; *************** function _lcd_send_4bits *****************
  1670 ;; Defined at:
  1671 ;;		line 210 in file "main.c"
  1672 ;; Parameters:    Size  Location     Type
  1673 ;;  _data_comman    1    wreg     unsigned char 
  1674 ;; Auto vars:     Size  Location     Type
  1675 ;;  _data_comman    1    2[COMMON] unsigned char 
  1676 ;; Return value:  Size  Location     Type
  1677 ;;                  1    wreg      void 
  1678 ;; Registers used:
  1679 ;;		wreg, status,2, status,0
  1680 ;; Tracked objects:
  1681 ;;		On entry : 0/0
  1682 ;;		On exit  : 0/0
  1683 ;;		Unchanged: 0/0
  1684 ;; Data sizes:     COMMON   BANK0   BANK1   BANK3   BANK2
  1685 ;;      Params:         0       0       0       0       0
  1686 ;;      Locals:         1       0       0       0       0
  1687 ;;      Temps:          2       0       0       0       0
  1688 ;;      Totals:         3       0       0       0       0
  1689 ;;Total ram usage:        3 bytes
  1690 ;; Hardware stack levels used: 1
  1691 ;; This function calls:
  1692 ;;		Nothing
  1693 ;; This function is called by:
  1694 ;;		_lcd_4bit_send_command
  1695 ;;		_lcd_4bit_send_char_data
  1696 ;; This function uses a non-reentrant model
  1697 ;;
  1698                           
  1699     0D70                     _lcd_send_4bits:	
  1700                           ;psect for function _lcd_send_4bits
  1701                           
  1702                           
  1703                           ;incstack = 0
  1704                           ; Regs used in _lcd_send_4bits: [wreg+status,2+status,0]
  1705                           ;lcd_send_4bits@_data_command stored from wreg
  1706     0D70  00F2               	movwf	lcd_send_4bits@_data_command
  1707     0D71                     l1675:
  1708                           
  1709                           ;main.c: 211:      PORTDbits.RD0 = ((_data_command >> 0) & (uint8) 0x01);
  1710     0D71  3001               	movlw	1
  1711     0D72  0572               	andwf	lcd_send_4bits@_data_command,w
  1712     0D73  00F0               	movwf	??_lcd_send_4bits
  1713     0D74  1283               	bcf	3,5	;RP0=0, select bank0
  1714     0D75  1303               	bcf	3,6	;RP1=0, select bank0
  1715     0D76  0808               	movf	8,w	;volatile
  1716     0D77  0670               	xorwf	??_lcd_send_4bits,w
  1717     0D78  39FE               	andlw	-2
  1718     0D79  0670               	xorwf	??_lcd_send_4bits,w
  1719     0D7A  0088               	movwf	8	;volatile
  1720                           
  1721                           ;main.c: 212:      PORTDbits.RD1 = ((_data_command >> 1) & (uint8) 0x01);
  1722     0D7B  0872               	movf	lcd_send_4bits@_data_command,w
  1723     0D7C  00F0               	movwf	??_lcd_send_4bits
  1724     0D7D  1003               	clrc
  1725     0D7E  0C70               	rrf	??_lcd_send_4bits,w
  1726     0D7F  3901               	andlw	1
  1727     0D80  00F1               	movwf	??_lcd_send_4bits+1
  1728     0D81  0DF1               	rlf	??_lcd_send_4bits+1,f
  1729     0D82  0808               	movf	8,w	;volatile
  1730     0D83  0671               	xorwf	??_lcd_send_4bits+1,w
  1731     0D84  39FD               	andlw	-3
  1732     0D85  0671               	xorwf	??_lcd_send_4bits+1,w
  1733     0D86  0088               	movwf	8	;volatile
  1734                           
  1735                           ;main.c: 213:      PORTDbits.RD2 = ((_data_command >> 2) & (uint8) 0x01);
  1736     0D87  0872               	movf	lcd_send_4bits@_data_command,w
  1737     0D88  00F0               	movwf	??_lcd_send_4bits
  1738     0D89  3002               	movlw	2
  1739     0D8A                     u1775:
  1740     0D8A  1003               	clrc
  1741     0D8B  0CF0               	rrf	??_lcd_send_4bits,f
  1742     0D8C  3EFF               	addlw	-1
  1743     0D8D  1D03               	skipz
  1744     0D8E  2D8A               	goto	u1775
  1745     0D8F  0870               	movf	??_lcd_send_4bits,w
  1746     0D90  3901               	andlw	1
  1747     0D91  00F1               	movwf	??_lcd_send_4bits+1
  1748     0D92  0DF1               	rlf	??_lcd_send_4bits+1,f
  1749     0D93  0DF1               	rlf	??_lcd_send_4bits+1,f
  1750     0D94  0808               	movf	8,w	;volatile
  1751     0D95  0671               	xorwf	??_lcd_send_4bits+1,w
  1752     0D96  39FB               	andlw	-5
  1753     0D97  0671               	xorwf	??_lcd_send_4bits+1,w
  1754     0D98  0088               	movwf	8	;volatile
  1755                           
  1756                           ;main.c: 214:      PORTDbits.RD3 = ((_data_command >> 3) & (uint8) 0x01);
  1757     0D99  0872               	movf	lcd_send_4bits@_data_command,w
  1758     0D9A  00F0               	movwf	??_lcd_send_4bits
  1759     0D9B  3003               	movlw	3
  1760     0D9C                     u1785:
  1761     0D9C  1003               	clrc
  1762     0D9D  0CF0               	rrf	??_lcd_send_4bits,f
  1763     0D9E  3EFF               	addlw	-1
  1764     0D9F  1D03               	skipz
  1765     0DA0  2D9C               	goto	u1785
  1766     0DA1  0870               	movf	??_lcd_send_4bits,w
  1767     0DA2  3901               	andlw	1
  1768     0DA3  00F1               	movwf	??_lcd_send_4bits+1
  1769     0DA4  0DF1               	rlf	??_lcd_send_4bits+1,f
  1770     0DA5  0DF1               	rlf	??_lcd_send_4bits+1,f
  1771     0DA6  0DF1               	rlf	??_lcd_send_4bits+1,f
  1772     0DA7  0808               	movf	8,w	;volatile
  1773     0DA8  0671               	xorwf	??_lcd_send_4bits+1,w
  1774     0DA9  39F7               	andlw	-9
  1775     0DAA  0671               	xorwf	??_lcd_send_4bits+1,w
  1776     0DAB  0088               	movwf	8	;volatile
  1777     0DAC                     l138:
  1778     0DAC  0008               	return
  1779     0DAD                     __end_of_lcd_send_4bits:
  1780                           
  1781                           	psect	text10
  1782     0C1B                     __ptext10:	
  1783 ;; *************** function _lcd_4bit_send_enable_signal *****************
  1784 ;; Defined at:
  1785 ;;		line 217 in file "main.c"
  1786 ;; Parameters:    Size  Location     Type
  1787 ;;		None
  1788 ;; Auto vars:     Size  Location     Type
  1789 ;;		None
  1790 ;; Return value:  Size  Location     Type
  1791 ;;                  1    wreg      void 
  1792 ;; Registers used:
  1793 ;;		None
  1794 ;; Tracked objects:
  1795 ;;		On entry : 0/0
  1796 ;;		On exit  : 0/0
  1797 ;;		Unchanged: 0/0
  1798 ;; Data sizes:     COMMON   BANK0   BANK1   BANK3   BANK2
  1799 ;;      Params:         0       0       0       0       0
  1800 ;;      Locals:         0       0       0       0       0
  1801 ;;      Temps:          0       0       0       0       0
  1802 ;;      Totals:         0       0       0       0       0
  1803 ;;Total ram usage:        0 bytes
  1804 ;; Hardware stack levels used: 1
  1805 ;; This function calls:
  1806 ;;		Nothing
  1807 ;; This function is called by:
  1808 ;;		_lcd_4bit_send_command
  1809 ;;		_lcd_4bit_send_char_data
  1810 ;; This function uses a non-reentrant model
  1811 ;;
  1812                           
  1813     0C1B                     _lcd_4bit_send_enable_signal:	
  1814                           ;psect for function _lcd_4bit_send_enable_signal
  1815                           
  1816     0C1B                     l1677:	
  1817                           ;incstack = 0
  1818                           ; Regs used in _lcd_4bit_send_enable_signal: []
  1819                           
  1820                           
  1821                           ;main.c: 218:      PORTDbits.RD5 = 1;
  1822     0C1B  1283               	bcf	3,5	;RP0=0, select bank0
  1823     0C1C  1303               	bcf	3,6	;RP1=0, select bank0
  1824     0C1D  1688               	bsf	8,5	;volatile
  1825                           
  1826                           ;main.c: 219:      _delay((unsigned long)((5)*(4000000UL/4000000.0)));
  1827     0C1E  2C1F               	nop2	;2 cycle nop
  1828     0C1F  2C20               	nop2	;2 cycle nop
  1829     0C20  0000               	nop
  1830                           
  1831                           ;main.c: 220:      PORTDbits.RD5 = 0;
  1832     0C21  1283               	bcf	3,5	;RP0=0, select bank0
  1833     0C22  1303               	bcf	3,6	;RP1=0, select bank0
  1834     0C23  1288               	bcf	8,5	;volatile
  1835     0C24                     l141:
  1836     0C24  0008               	return
  1837     0C25                     __end_of_lcd_4bit_send_enable_signal:
  1838                           
  1839                           	psect	text11
  1840     0DAD                     __ptext11:	
  1841 ;; *************** function _convert_uint16_to_string *****************
  1842 ;; Defined at:
  1843 ;;		line 258 in file "main.c"
  1844 ;; Parameters:    Size  Location     Type
  1845 ;;  value           2   34[BANK0 ] unsigned short 
  1846 ;;  str             1   36[BANK0 ] PTR unsigned char 
  1847 ;;		 -> adc_res_real_txt(7), 
  1848 ;; Auto vars:     Size  Location     Type
  1849 ;;  Temp_String     6   39[BANK0 ] unsigned char [6]
  1850 ;;  DataCounter     1   45[BANK0 ] unsigned char 
  1851 ;; Return value:  Size  Location     Type
  1852 ;;                  1    wreg      void 
  1853 ;; Registers used:
  1854 ;;		wreg, fsr0l, fsr0h, status,2, status,0, btemp+1, pclath, cstack
  1855 ;; Tracked objects:
  1856 ;;		On entry : 0/0
  1857 ;;		On exit  : 0/0
  1858 ;;		Unchanged: 0/0
  1859 ;; Data sizes:     COMMON   BANK0   BANK1   BANK3   BANK2
  1860 ;;      Params:         0       3       0       0       0
  1861 ;;      Locals:         0       7       0       0       0
  1862 ;;      Temps:          0       2       0       0       0
  1863 ;;      Totals:         0      12       0       0       0
  1864 ;;Total ram usage:       12 bytes
  1865 ;; Hardware stack levels used: 1
  1866 ;; Hardware stack levels required when called: 5
  1867 ;; This function calls:
  1868 ;;		_memset
  1869 ;;		_sprintf
  1870 ;; This function is called by:
  1871 ;;		_main
  1872 ;; This function uses a non-reentrant model
  1873 ;;
  1874                           
  1875     0DAD                     _convert_uint16_to_string:	
  1876                           ;psect for function _convert_uint16_to_string
  1877                           
  1878     0DAD                     l1889:	
  1879                           ;incstack = 0
  1880                           ; Regs used in _convert_uint16_to_string: [wreg-fsr0h+status,2+status,0+btemp+1+pclath+c
      +                          stack]
  1881                           
  1882                           
  1883                           ;main.c: 259:      uint8 Temp_String[6] = {0};
  1884     0DAD  3047               	movlw	convert_uint16_to_string@Temp_String& (0+255)
  1885     0DAE  0084               	movwf	4
  1886     0DAF  3006               	movlw	6
  1887     0DB0  00FF               	movwf	btemp+1
  1888     0DB1                     u2130:
  1889     0DB1  1383               	bcf	3,7	;select IRP bank0
  1890     0DB2  0180               	clrf	0
  1891     0DB3  0A84               	incf	4,f
  1892     0DB4  0BFF               	decfsz	btemp+1,f
  1893     0DB5  2DB1               	goto	u2130
  1894     0DB6                     l1891:
  1895                           
  1896                           ;main.c: 260:      uint8 DataCounter = 0;
  1897     0DB6  1283               	bcf	3,5	;RP0=0, select bank0
  1898     0DB7  1303               	bcf	3,6	;RP1=0, select bank0
  1899     0DB8  01CD               	clrf	convert_uint16_to_string@DataCounter
  1900     0DB9                     l1893:
  1901                           
  1902                           ;main.c: 261:      memset(str, ' ', 5);
  1903     0DB9  0844               	movf	convert_uint16_to_string@str,w
  1904     0DBA  00F0               	movwf	memset@dest
  1905     0DBB  3020               	movlw	32
  1906     0DBC  00F1               	movwf	memset@c
  1907     0DBD  3000               	movlw	0
  1908     0DBE  00F2               	movwf	memset@c+1
  1909     0DBF  3005               	movlw	5
  1910     0DC0  00F3               	movwf	memset@n
  1911     0DC1  3000               	movlw	0
  1912     0DC2  00F4               	movwf	memset@n+1
  1913     0DC3  120A  158A  2460  120A  158A  	fcall	_memset
  1914     0DC8                     l1895:
  1915                           
  1916                           ;main.c: 262:      str[5] = '\0';
  1917     0DC8  1283               	bcf	3,5	;RP0=0, select bank0
  1918     0DC9  1303               	bcf	3,6	;RP1=0, select bank0
  1919     0DCA  0844               	movf	convert_uint16_to_string@str,w
  1920     0DCB  3E05               	addlw	5
  1921     0DCC  0084               	movwf	4
  1922     0DCD  1383               	bcf	3,7	;select IRP bank0
  1923     0DCE  0180               	clrf	0
  1924     0DCF                     l1897:
  1925                           
  1926                           ;main.c: 263:      sprintf((char *) Temp_String, "%i", value);
  1927     0DCF  3047               	movlw	(low (convert_uint16_to_string@Temp_String| 0))& (0+255)
  1928     0DD0  00B1               	movwf	sprintf@s
  1929     0DD1  3001               	movlw	(low ((STR_1-__stringbase)| (0+32768)))& (0+255)
  1930     0DD2  00B2               	movwf	sprintf@fmt
  1931     0DD3  0843               	movf	convert_uint16_to_string@value+1,w
  1932     0DD4  00B4               	movwf	?_sprintf+3
  1933     0DD5  0842               	movf	convert_uint16_to_string@value,w
  1934     0DD6  00B3               	movwf	?_sprintf+2
  1935     0DD7  120A  158A  2496  120A  158A  	fcall	_sprintf
  1936                           
  1937                           ;main.c: 264:      while (Temp_String[DataCounter] != '\0') {
  1938     0DDC  2DEB               	goto	l1903
  1939     0DDD                     l1899:
  1940                           
  1941                           ;main.c: 265:          str[DataCounter] = Temp_String[DataCounter];
  1942     0DDD  084D               	movf	convert_uint16_to_string@DataCounter,w
  1943     0DDE  3E47               	addlw	(low (convert_uint16_to_string@Temp_String| 0))& (0+255)
  1944     0DDF  0084               	movwf	4
  1945     0DE0  0800               	movf	0,w
  1946     0DE1  00C5               	movwf	??_convert_uint16_to_string
  1947     0DE2  084D               	movf	convert_uint16_to_string@DataCounter,w
  1948     0DE3  0744               	addwf	convert_uint16_to_string@str,w
  1949     0DE4  00C6               	movwf	??_convert_uint16_to_string+1
  1950     0DE5  0846               	movf	??_convert_uint16_to_string+1,w
  1951     0DE6  0084               	movwf	4
  1952     0DE7  0845               	movf	??_convert_uint16_to_string,w
  1953     0DE8  0080               	movwf	0
  1954     0DE9                     l1901:
  1955                           
  1956                           ;main.c: 266:          DataCounter++;
  1957     0DE9  3001               	movlw	1
  1958     0DEA  07CD               	addwf	convert_uint16_to_string@DataCounter,f
  1959     0DEB                     l1903:
  1960                           
  1961                           ;main.c: 264:      while (Temp_String[DataCounter] != '\0') {
  1962     0DEB  1283               	bcf	3,5	;RP0=0, select bank0
  1963     0DEC  1303               	bcf	3,6	;RP1=0, select bank0
  1964     0DED  084D               	movf	convert_uint16_to_string@DataCounter,w
  1965     0DEE  3E47               	addlw	(low (convert_uint16_to_string@Temp_String| 0))& (0+255)
  1966     0DEF  0084               	movwf	4
  1967     0DF0  1383               	bcf	3,7	;select IRP bank0
  1968     0DF1  0800               	movf	0,w
  1969     0DF2  1D03               	btfss	3,2
  1970     0DF3  2DF5               	goto	u2141
  1971     0DF4  2DF6               	goto	u2140
  1972     0DF5                     u2141:
  1973     0DF5  2DDD               	goto	l1899
  1974     0DF6                     u2140:
  1975     0DF6                     l169:
  1976     0DF6  0008               	return
  1977     0DF7                     __end_of_convert_uint16_to_string:
  1978                           
  1979                           	psect	text12
  1980     0C96                     __ptext12:	
  1981 ;; *************** function _sprintf *****************
  1982 ;; Defined at:
  1983 ;;		line 9 in file "/Applications/microchip/xc8/v3.00/pic/sources/c99/common/nf_sprintf.c"
  1984 ;; Parameters:    Size  Location     Type
  1985 ;;  s               1   17[BANK0 ] PTR unsigned char 
  1986 ;;		 -> convert_uint16_to_string@Temp_String(6), 
  1987 ;;  fmt             1   18[BANK0 ] PTR const unsigned char 
  1988 ;;		 -> STR_2(3), STR_1(3), 
  1989 ;; Auto vars:     Size  Location     Type
  1990 ;;  f              11   23[BANK0 ] struct _IO_FILE
  1991 ;;  ret             2    0        int 
  1992 ;;  ap              1   22[BANK0 ] PTR void [1]
  1993 ;;		 -> ?_sprintf(2), 
  1994 ;; Return value:  Size  Location     Type
  1995 ;;                  2   17[BANK0 ] int 
  1996 ;; Registers used:
  1997 ;;		wreg, fsr0l, fsr0h, status,2, status,0, pclath, cstack
  1998 ;; Tracked objects:
  1999 ;;		On entry : 0/0
  2000 ;;		On exit  : 0/0
  2001 ;;		Unchanged: 0/0
  2002 ;; Data sizes:     COMMON   BANK0   BANK1   BANK3   BANK2
  2003 ;;      Params:         0       4       0       0       0
  2004 ;;      Locals:         0      12       0       0       0
  2005 ;;      Temps:          0       1       0       0       0
  2006 ;;      Totals:         0      17       0       0       0
  2007 ;;Total ram usage:       17 bytes
  2008 ;; Hardware stack levels used: 1
  2009 ;; Hardware stack levels required when called: 4
  2010 ;; This function calls:
  2011 ;;		_vfprintf
  2012 ;; This function is called by:
  2013 ;;		_convert_uint16_to_string
  2014 ;;		_convert_uint8_to_string
  2015 ;; This function uses a non-reentrant model
  2016 ;;
  2017                           
  2018     0C96                     _sprintf:	
  2019                           ;psect for function _sprintf
  2020                           
  2021     0C96                     l1713:	
  2022                           ;incstack = 0
  2023                           ; Regs used in _sprintf: [wreg-fsr0h+status,2+status,0+pclath+cstack]
  2024                           
  2025     0C96  3033               	movlw	(low ((?_sprintf| 0+2)))& (0+255)
  2026     0C97  1283               	bcf	3,5	;RP0=0, select bank0
  2027     0C98  1303               	bcf	3,6	;RP1=0, select bank0
  2028     0C99  00B6               	movwf	sprintf@ap
  2029     0C9A                     l1715:
  2030     0C9A  0831               	movf	sprintf@s,w
  2031     0C9B  00B7               	movwf	sprintf@f
  2032     0C9C  3000               	movlw	0
  2033     0C9D  00B8               	movwf	sprintf@f+1
  2034     0C9E                     l1717:
  2035     0C9E  01B9               	clrf	sprintf@f+2
  2036     0C9F  01BA               	clrf	sprintf@f+3
  2037     0CA0                     l1719:
  2038     0CA0  01C0               	clrf	sprintf@f+9
  2039     0CA1  01C1               	clrf	sprintf@f+10
  2040     0CA2                     l1721:
  2041     0CA2  3037               	movlw	low sprintf@f
  2042     0CA3  00AD               	movwf	vfprintf@fp
  2043     0CA4  3000               	movlw	high sprintf@f
  2044     0CA5  00AE               	movwf	vfprintf@fp+1
  2045     0CA6  0832               	movf	sprintf@fmt,w
  2046     0CA7  00AF               	movwf	vfprintf@fmt
  2047     0CA8  3036               	movlw	(low (sprintf@ap| 0))& (0+255)
  2048     0CA9  00B0               	movwf	vfprintf@ap
  2049     0CAA  120A  158A  2524  120A  158A  	fcall	_vfprintf
  2050     0CAF                     l1723:
  2051     0CAF  1283               	bcf	3,5	;RP0=0, select bank0
  2052     0CB0  1303               	bcf	3,6	;RP1=0, select bank0
  2053     0CB1  0839               	movf	sprintf@f+2,w
  2054     0CB2  0731               	addwf	sprintf@s,w
  2055     0CB3  00B5               	movwf	??_sprintf
  2056     0CB4  0835               	movf	??_sprintf,w
  2057     0CB5  0084               	movwf	4
  2058     0CB6  1383               	bcf	3,7	;select IRP bank0
  2059     0CB7  0180               	clrf	0
  2060     0CB8                     l727:
  2061     0CB8  0008               	return
  2062     0CB9                     __end_of_sprintf:
  2063                           
  2064                           	psect	text13
  2065     0D24                     __ptext13:	
  2066 ;; *************** function _vfprintf *****************
  2067 ;; Defined at:
  2068 ;;		line 1817 in file "/Applications/microchip/xc8/v3.00/pic/sources/c99/common/doprnt.c"
  2069 ;; Parameters:    Size  Location     Type
  2070 ;;  fp              2   13[BANK0 ] PTR struct _IO_FILE
  2071 ;;		 -> sprintf@f(11), 
  2072 ;;  fmt             1   15[BANK0 ] PTR const unsigned char 
  2073 ;;		 -> STR_2(3), STR_1(3), 
  2074 ;;  ap              1   16[BANK0 ] PTR PTR void 
  2075 ;;		 -> sprintf@ap(1), 
  2076 ;; Auto vars:     Size  Location     Type
  2077 ;;  cfmt            1   13[COMMON] PTR unsigned char 
  2078 ;;		 -> STR_2(3), STR_1(3), 
  2079 ;; Return value:  Size  Location     Type
  2080 ;;                  2   13[BANK0 ] int 
  2081 ;; Registers used:
  2082 ;;		wreg, fsr0l, fsr0h, status,2, status,0, pclath, cstack
  2083 ;; Tracked objects:
  2084 ;;		On entry : 0/0
  2085 ;;		On exit  : 0/0
  2086 ;;		Unchanged: 0/0
  2087 ;; Data sizes:     COMMON   BANK0   BANK1   BANK3   BANK2
  2088 ;;      Params:         0       4       0       0       0
  2089 ;;      Locals:         1       0       0       0       0
  2090 ;;      Temps:          0       0       0       0       0
  2091 ;;      Totals:         1       4       0       0       0
  2092 ;;Total ram usage:        5 bytes
  2093 ;; Hardware stack levels used: 1
  2094 ;; Hardware stack levels required when called: 3
  2095 ;; This function calls:
  2096 ;;		_vfpfcnvrt
  2097 ;; This function is called by:
  2098 ;;		_sprintf
  2099 ;; This function uses a non-reentrant model
  2100 ;;
  2101                           
  2102     0D24                     _vfprintf:	
  2103                           ;psect for function _vfprintf
  2104                           
  2105     0D24                     l1679:	
  2106                           ;incstack = 0
  2107                           ; Regs used in _vfprintf: [wreg-fsr0h+status,2+status,0+pclath+cstack]
  2108                           
  2109                           
  2110                           ;/Applications/microchip/xc8/v3.00/pic/sources/c99/common/doprnt.c: 1817: int vfprintf(F
      +                          ILE *fp, const char *fmt, va_list ap);/Applications/microchip/xc8/v3.00/pic/sources/c99/
      +                          common/doprnt.c: 1818: {;/Applications/microchip/xc8/v3.00/pic/sources/c99/common/doprnt
      +                          .c: 1820:     char *cfmt;;/Applications/microchip/xc8/v3.00/pic/sources/c99/common/doprn
      +                          t.c: 1822:     cfmt = (char *)fmt;
  2111     0D24  1283               	bcf	3,5	;RP0=0, select bank0
  2112     0D25  1303               	bcf	3,6	;RP1=0, select bank0
  2113     0D26  082F               	movf	vfprintf@fmt,w
  2114     0D27  00FD               	movwf	vfprintf@cfmt
  2115                           
  2116                           ;/Applications/microchip/xc8/v3.00/pic/sources/c99/common/doprnt.c: 1826:     while (*cf
      +                          mt) {
  2117     0D28  2D38               	goto	l1683
  2118     0D29                     l1681:
  2119                           
  2120                           ;/Applications/microchip/xc8/v3.00/pic/sources/c99/common/doprnt.c: 1830:    vfpfcnvrt(f
      +                          p, &cfmt, ap);
  2121     0D29  1283               	bcf	3,5	;RP0=0, select bank0
  2122     0D2A  1303               	bcf	3,6	;RP1=0, select bank0
  2123     0D2B  082D               	movf	vfprintf@fp,w
  2124     0D2C  00A0               	movwf	vfpfcnvrt@fp
  2125     0D2D  082E               	movf	vfprintf@fp+1,w
  2126     0D2E  00A1               	movwf	vfpfcnvrt@fp+1
  2127     0D2F  307D               	movlw	(low (vfprintf@cfmt| 0))& (0+255)
  2128     0D30  00A2               	movwf	vfpfcnvrt@fmt
  2129     0D31  0830               	movf	vfprintf@ap,w
  2130     0D32  00A3               	movwf	vfpfcnvrt@ap
  2131     0D33  120A  118A  21F9  120A  158A  	fcall	_vfpfcnvrt
  2132     0D38                     l1683:
  2133                           
  2134                           ;/Applications/microchip/xc8/v3.00/pic/sources/c99/common/doprnt.c: 1826:     while (*cf
      +                          mt) {
  2135     0D38  087D               	movf	vfprintf@cfmt,w
  2136     0D39  0084               	movwf	4
  2137     0D3A  120A  158A  2000  120A  158A  	fcall	stringdir
  2138     0D3F  3A00               	xorlw	0
  2139     0D40  1D03               	skipz
  2140     0D41  2D43               	goto	u1791
  2141     0D42  2D44               	goto	u1790
  2142     0D43                     u1791:
  2143     0D43  2D29               	goto	l1681
  2144     0D44                     u1790:
  2145     0D44                     l1685:
  2146                           
  2147                           ;/Applications/microchip/xc8/v3.00/pic/sources/c99/common/doprnt.c: 1835:  return 0;
  2148     0D44  1283               	bcf	3,5	;RP0=0, select bank0
  2149     0D45  1303               	bcf	3,6	;RP1=0, select bank0
  2150     0D46  01AD               	clrf	?_vfprintf
  2151     0D47  01AE               	clrf	?_vfprintf+1
  2152     0D48                     l771:
  2153     0D48  0008               	return
  2154     0D49                     __end_of_vfprintf:
  2155                           
  2156                           	psect	text14
  2157     01F9                     __ptext14:	
  2158 ;; *************** function _vfpfcnvrt *****************
  2159 ;; Defined at:
  2160 ;;		line 1177 in file "/Applications/microchip/xc8/v3.00/pic/sources/c99/common/doprnt.c"
  2161 ;; Parameters:    Size  Location     Type
  2162 ;;  fp              2    0[BANK0 ] PTR struct _IO_FILE
  2163 ;;		 -> sprintf@f(11), 
  2164 ;;  fmt             1    2[BANK0 ] PTR PTR unsigned char 
  2165 ;;		 -> vfprintf@cfmt(1), 
  2166 ;;  ap              1    3[BANK0 ] PTR PTR void 
  2167 ;;		 -> sprintf@ap(1), 
  2168 ;; Auto vars:     Size  Location     Type
  2169 ;;  convarg         4    8[BANK0 ] struct .
  2170 ;;  c               1   12[BANK0 ] unsigned char 
  2171 ;;  cp              1    7[BANK0 ] PTR unsigned char 
  2172 ;;		 -> STR_2(3), STR_1(3), 
  2173 ;;  done            1    6[BANK0 ] _Bool 
  2174 ;; Return value:  Size  Location     Type
  2175 ;;                  1    wreg      void 
  2176 ;; Registers used:
  2177 ;;		wreg, fsr0l, fsr0h, status,2, status,0, pclath, cstack
  2178 ;; Tracked objects:
  2179 ;;		On entry : 0/0
  2180 ;;		On exit  : 0/0
  2181 ;;		Unchanged: 0/0
  2182 ;; Data sizes:     COMMON   BANK0   BANK1   BANK3   BANK2
  2183 ;;      Params:         0       4       0       0       0
  2184 ;;      Locals:         0       7       0       0       0
  2185 ;;      Temps:          0       2       0       0       0
  2186 ;;      Totals:         0      13       0       0       0
  2187 ;;Total ram usage:       13 bytes
  2188 ;; Hardware stack levels used: 1
  2189 ;; Hardware stack levels required when called: 2
  2190 ;; This function calls:
  2191 ;;		___awdiv
  2192 ;;		___awmod
  2193 ;;		_abs
  2194 ;;		_fputc
  2195 ;; This function is called by:
  2196 ;;		_vfprintf
  2197 ;; This function uses a non-reentrant model
  2198 ;;
  2199                           
  2200     01F9                     _vfpfcnvrt:	
  2201                           ;psect for function _vfpfcnvrt
  2202                           
  2203     01F9                     l1625:	
  2204                           ;incstack = 0
  2205                           ; Regs used in _vfpfcnvrt: [wreg-fsr0h+status,2+status,0+pclath+cstack]
  2206                           
  2207                           
  2208                           ;/Applications/microchip/xc8/v3.00/pic/sources/c99/common/doprnt.c: 1177: vfpfcnvrt(FILE
      +                           *fp, char *fmt[], va_list ap);/Applications/microchip/xc8/v3.00/pic/sources/c99/common/
      +                          doprnt.c: 1178: {;/Applications/microchip/xc8/v3.00/pic/sources/c99/common/doprnt.c: 117
      +                          9:     char c, *cp;;/Applications/microchip/xc8/v3.00/pic/sources/c99/common/doprnt.c: 1
      +                          180:     _Bool done;;/Applications/microchip/xc8/v3.00/pic/sources/c99/common/doprnt.c: 
      +                          1188:  } convarg;;/Applications/microchip/xc8/v3.00/pic/sources/c99/common/doprnt.c: 120
      +                          1:     if ((*fmt)[0] == '%') {
  2209     01F9  1283               	bcf	3,5	;RP0=0, select bank0
  2210     01FA  1303               	bcf	3,6	;RP1=0, select bank0
  2211     01FB  0822               	movf	vfpfcnvrt@fmt,w
  2212     01FC  0084               	movwf	4
  2213     01FD  0800               	movf	0,w
  2214     01FE  0084               	movwf	4
  2215     01FF  120A  158A  2000  120A  118A  	fcall	stringdir
  2216     0204  3A25               	xorlw	37
  2217     0205  1D03               	skipz
  2218     0206  2A08               	goto	u1671
  2219     0207  2A09               	goto	u1670
  2220     0208                     u1671:
  2221     0208  2AC5               	goto	l1669
  2222     0209                     u1670:
  2223     0209                     l1627:
  2224                           
  2225                           ;/Applications/microchip/xc8/v3.00/pic/sources/c99/common/doprnt.c: 1202:         ++*fmt
      +                          ;
  2226     0209  0822               	movf	vfpfcnvrt@fmt,w
  2227     020A  0084               	movwf	4
  2228     020B  3001               	movlw	1
  2229     020C  0780               	addwf	0,f
  2230     020D                     l1629:
  2231                           
  2232                           ;/Applications/microchip/xc8/v3.00/pic/sources/c99/common/doprnt.c: 1204:         flags 
      +                          = width = 0;
  2233     020D  01E8               	clrf	_width
  2234     020E  01E9               	clrf	_width+1
  2235     020F  3000               	movlw	0
  2236     0210  00EE               	movwf	_flags
  2237     0211                     l1631:
  2238                           
  2239                           ;/Applications/microchip/xc8/v3.00/pic/sources/c99/common/doprnt.c: 1205:         prec =
      +                           -1;
  2240     0211  30FF               	movlw	255
  2241     0212  00EA               	movwf	_prec
  2242     0213  30FF               	movlw	255
  2243     0214  00EB               	movwf	_prec+1
  2244     0215                     l1633:
  2245                           
  2246                           ;/Applications/microchip/xc8/v3.00/pic/sources/c99/common/doprnt.c: 1291:   cp = *fmt;
  2247     0215  0822               	movf	vfpfcnvrt@fmt,w
  2248     0216  0084               	movwf	4
  2249     0217  0800               	movf	0,w
  2250     0218  00A7               	movwf	vfpfcnvrt@cp
  2251     0219                     l1635:
  2252                           
  2253                           ;/Applications/microchip/xc8/v3.00/pic/sources/c99/common/doprnt.c: 1361:   if (*cp == '
      +                          d' || *cp == 'i') {
  2254     0219  0827               	movf	vfpfcnvrt@cp,w
  2255     021A  0084               	movwf	4
  2256     021B  120A  158A  2000  120A  118A  	fcall	stringdir
  2257     0220  3A64               	xorlw	100
  2258     0221  1903               	skipnz
  2259     0222  2A24               	goto	u1681
  2260     0223  2A25               	goto	u1680
  2261     0224                     u1681:
  2262     0224  2A31               	goto	l1639
  2263     0225                     u1680:
  2264     0225                     l1637:
  2265     0225  0827               	movf	vfpfcnvrt@cp,w
  2266     0226  0084               	movwf	4
  2267     0227  120A  158A  2000  120A  118A  	fcall	stringdir
  2268     022C  3A69               	xorlw	105
  2269     022D  1D03               	skipz
  2270     022E  2A30               	goto	u1691
  2271     022F  2A31               	goto	u1690
  2272     0230                     u1691:
  2273     0230  2ABE               	goto	l1665
  2274     0231                     u1690:
  2275     0231                     l1639:
  2276                           
  2277                           ;/Applications/microchip/xc8/v3.00/pic/sources/c99/common/doprnt.c: 1404:    convarg.sin
      +                          t = (vfpf_sint_t)(int)(*(int *)__va_arg(*(int **)ap, (int)0));
  2278     0231  0823               	movf	vfpfcnvrt@ap,w
  2279     0232  0084               	movwf	4
  2280     0233  1383               	bcf	3,7	;select IRP bank0
  2281     0234  0800               	movf	0,w
  2282     0235  00A4               	movwf	??_vfpfcnvrt
  2283     0236  3002               	movlw	2
  2284     0237  0780               	addwf	0,f
  2285     0238  0824               	movf	??_vfpfcnvrt,w
  2286     0239  0084               	movwf	4
  2287     023A  0800               	movf	0,w
  2288     023B  00A8               	movwf	vfpfcnvrt@convarg
  2289     023C  0A84               	incf	4,f
  2290     023D  0800               	movf	0,w
  2291     023E  00A9               	movwf	vfpfcnvrt@convarg+1
  2292                           
  2293                           ;/Applications/microchip/xc8/v3.00/pic/sources/c99/common/doprnt.c: 1406:    *fmt = cp+1
      +                          ;
  2294     023F  0822               	movf	vfpfcnvrt@fmt,w
  2295     0240  0084               	movwf	4
  2296     0241  0827               	movf	vfpfcnvrt@cp,w
  2297     0242  3E01               	addlw	1
  2298     0243  0080               	movwf	0
  2299     0244                     l1641:
  2300                           
  2301                           ;/Applications/microchip/xc8/v3.00/pic/sources/c99/common/doprnt.c: 1408:    c = sizeof(
      +                          dbuf);
  2302     0244  3020               	movlw	32
  2303     0245  00AC               	movwf	vfpfcnvrt@c
  2304     0246                     l1643:
  2305                           
  2306                           ;/Applications/microchip/xc8/v3.00/pic/sources/c99/common/doprnt.c: 1409:    done = conv
      +                          arg.sint < 0;
  2307     0246  1BA9               	btfsc	vfpfcnvrt@convarg+1,7
  2308     0247  2A49               	goto	u1701
  2309     0248  2A4B               	goto	u1700
  2310     0249                     u1701:
  2311     0249  3001               	movlw	1
  2312     024A  2A4C               	goto	u1710
  2313     024B                     u1700:
  2314     024B  3000               	movlw	0
  2315     024C                     u1710:
  2316     024C  00A6               	movwf	vfpfcnvrt@done
  2317     024D                     l1645:
  2318                           
  2319                           ;/Applications/microchip/xc8/v3.00/pic/sources/c99/common/doprnt.c: 1411:     dbuf[--c] 
      +                          = abs(convarg.sint % 10) + '0';
  2320     024D  3001               	movlw	1
  2321     024E  02AC               	subwf	vfpfcnvrt@c,f
  2322     024F  082C               	movf	vfpfcnvrt@c,w
  2323     0250  3EA0               	addlw	(low (_dbuf| 0))& (0+255)
  2324     0251  0084               	movwf	4
  2325     0252  300A               	movlw	10
  2326     0253  00F0               	movwf	___awmod@divisor
  2327     0254  3000               	movlw	0
  2328     0255  00F1               	movwf	___awmod@divisor+1
  2329     0256  0829               	movf	vfpfcnvrt@convarg+1,w
  2330     0257  00F3               	movwf	___awmod@dividend+1
  2331     0258  0828               	movf	vfpfcnvrt@convarg,w
  2332     0259  00F2               	movwf	___awmod@dividend
  2333     025A  120A  158A  2699  120A  118A  	fcall	___awmod
  2334     025F  0871               	movf	?___awmod+1,w
  2335     0260  00F7               	movwf	abs@a+1
  2336     0261  0870               	movf	?___awmod,w
  2337     0262  00F6               	movwf	abs@a
  2338     0263  120A  158A  2425  120A  118A  	fcall	_abs
  2339     0268  0876               	movf	?_abs,w
  2340     0269  3E30               	addlw	48
  2341     026A  1383               	bcf	3,7	;select IRP bank1
  2342     026B  0080               	movwf	0
  2343     026C                     l1647:
  2344                           
  2345                           ;/Applications/microchip/xc8/v3.00/pic/sources/c99/common/doprnt.c: 1412:     convarg.si
      +                          nt /= 10;
  2346     026C  300A               	movlw	10
  2347     026D  00F0               	movwf	___awdiv@divisor
  2348     026E  3000               	movlw	0
  2349     026F  00F1               	movwf	___awdiv@divisor+1
  2350     0270  1283               	bcf	3,5	;RP0=0, select bank0
  2351     0271  1303               	bcf	3,6	;RP1=0, select bank0
  2352     0272  0829               	movf	vfpfcnvrt@convarg+1,w
  2353     0273  00F3               	movwf	___awdiv@dividend+1
  2354     0274  0828               	movf	vfpfcnvrt@convarg,w
  2355     0275  00F2               	movwf	___awdiv@dividend
  2356     0276  120A  118A  2010  120A  118A  	fcall	___awdiv
  2357     027B  0871               	movf	?___awdiv+1,w
  2358     027C  1283               	bcf	3,5	;RP0=0, select bank0
  2359     027D  1303               	bcf	3,6	;RP1=0, select bank0
  2360     027E  00A9               	movwf	vfpfcnvrt@convarg+1
  2361     027F  0870               	movf	?___awdiv,w
  2362     0280  00A8               	movwf	vfpfcnvrt@convarg
  2363     0281                     l1649:
  2364                           
  2365                           ;/Applications/microchip/xc8/v3.00/pic/sources/c99/common/doprnt.c: 1416:    } while (co
      +                          nvarg.sint != 0 && c != 0);
  2366     0281  0828               	movf	vfpfcnvrt@convarg,w
  2367     0282  0429               	iorwf	vfpfcnvrt@convarg+1,w
  2368     0283  1903               	btfsc	3,2
  2369     0284  2A86               	goto	u1721
  2370     0285  2A87               	goto	u1720
  2371     0286                     u1721:
  2372     0286  2A8C               	goto	l1653
  2373     0287                     u1720:
  2374     0287                     l1651:
  2375     0287  082C               	movf	vfpfcnvrt@c,w
  2376     0288  1D03               	btfss	3,2
  2377     0289  2A8B               	goto	u1731
  2378     028A  2A8C               	goto	u1730
  2379     028B                     u1731:
  2380     028B  2A4D               	goto	l1645
  2381     028C                     u1730:
  2382     028C                     l1653:
  2383                           
  2384                           ;/Applications/microchip/xc8/v3.00/pic/sources/c99/common/doprnt.c: 1417:    if (c != 0 
      +                          && done) {
  2385     028C  082C               	movf	vfpfcnvrt@c,w
  2386     028D  1903               	btfsc	3,2
  2387     028E  2A90               	goto	u1741
  2388     028F  2A91               	goto	u1740
  2389     0290                     u1741:
  2390     0290  2AB7               	goto	l1663
  2391     0291                     u1740:
  2392     0291                     l1655:
  2393     0291  0826               	movf	vfpfcnvrt@done,w
  2394     0292  1903               	btfsc	3,2
  2395     0293  2A95               	goto	u1751
  2396     0294  2A96               	goto	u1750
  2397     0295                     u1751:
  2398     0295  2AB7               	goto	l1663
  2399     0296                     u1750:
  2400     0296                     l1657:
  2401                           
  2402                           ;/Applications/microchip/xc8/v3.00/pic/sources/c99/common/doprnt.c: 1418:     dbuf[--c] 
      +                          = '-';
  2403     0296  3001               	movlw	1
  2404     0297  02AC               	subwf	vfpfcnvrt@c,f
  2405     0298  082C               	movf	vfpfcnvrt@c,w
  2406     0299  3EA0               	addlw	(low (_dbuf| 0))& (0+255)
  2407     029A  0084               	movwf	4
  2408     029B  302D               	movlw	45
  2409     029C  1383               	bcf	3,7	;select IRP bank1
  2410     029D  0080               	movwf	0
  2411     029E  2AB7               	goto	l1663
  2412     029F                     l1659:
  2413                           
  2414                           ;/Applications/microchip/xc8/v3.00/pic/sources/c99/common/doprnt.c: 1424:     fputc(dbuf
      +                          [c++], fp);
  2415     029F  082C               	movf	vfpfcnvrt@c,w
  2416     02A0  3EA0               	addlw	(low (_dbuf| 0))& (0+255)
  2417     02A1  0084               	movwf	4
  2418     02A2  1383               	bcf	3,7	;select IRP bank1
  2419     02A3  0800               	movf	0,w
  2420     02A4  00A4               	movwf	??_vfpfcnvrt
  2421     02A5  01A5               	clrf	??_vfpfcnvrt+1
  2422     02A6  0824               	movf	??_vfpfcnvrt,w
  2423     02A7  00F0               	movwf	fputc@c
  2424     02A8  0825               	movf	??_vfpfcnvrt+1,w
  2425     02A9  00F1               	movwf	fputc@c+1
  2426     02AA  0820               	movf	vfpfcnvrt@fp,w
  2427     02AB  00F2               	movwf	fputc@fp
  2428     02AC  0821               	movf	vfpfcnvrt@fp+1,w
  2429     02AD  00F3               	movwf	fputc@fp+1
  2430     02AE  120A  158A  2766  120A  118A  	fcall	_fputc
  2431     02B3                     l1661:
  2432     02B3  3001               	movlw	1
  2433     02B4  1283               	bcf	3,5	;RP0=0, select bank0
  2434     02B5  1303               	bcf	3,6	;RP1=0, select bank0
  2435     02B6  07AC               	addwf	vfpfcnvrt@c,f
  2436     02B7                     l1663:
  2437                           
  2438                           ;/Applications/microchip/xc8/v3.00/pic/sources/c99/common/doprnt.c: 1423:    while (c !=
      +                           sizeof(dbuf)) {
  2439     02B7  3020               	movlw	32
  2440     02B8  062C               	xorwf	vfpfcnvrt@c,w
  2441     02B9  1D03               	btfss	3,2
  2442     02BA  2ABC               	goto	u1761
  2443     02BB  2ABD               	goto	u1760
  2444     02BC                     u1761:
  2445     02BC  2A9F               	goto	l1659
  2446     02BD                     u1760:
  2447     02BD  2ADE               	goto	l765
  2448     02BE                     l1665:
  2449                           
  2450                           ;/Applications/microchip/xc8/v3.00/pic/sources/c99/common/doprnt.c: 1806:         ++*fmt
      +                          ;
  2451     02BE  1283               	bcf	3,5	;RP0=0, select bank0
  2452     02BF  1303               	bcf	3,6	;RP1=0, select bank0
  2453     02C0  0822               	movf	vfpfcnvrt@fmt,w
  2454     02C1  0084               	movwf	4
  2455     02C2  3001               	movlw	1
  2456     02C3  0780               	addwf	0,f
  2457     02C4  2ADE               	goto	l765
  2458     02C5                     l1669:
  2459                           
  2460                           ;/Applications/microchip/xc8/v3.00/pic/sources/c99/common/doprnt.c: 1811:     fputc((int
      +                          )(*fmt)[0], fp);
  2461     02C5  0822               	movf	vfpfcnvrt@fmt,w
  2462     02C6  0084               	movwf	4
  2463     02C7  0800               	movf	0,w
  2464     02C8  0084               	movwf	4
  2465     02C9  120A  158A  2000  120A  118A  	fcall	stringdir
  2466     02CE  00A4               	movwf	??_vfpfcnvrt
  2467     02CF  01A5               	clrf	??_vfpfcnvrt+1
  2468     02D0  0824               	movf	??_vfpfcnvrt,w
  2469     02D1  00F0               	movwf	fputc@c
  2470     02D2  0825               	movf	??_vfpfcnvrt+1,w
  2471     02D3  00F1               	movwf	fputc@c+1
  2472     02D4  0820               	movf	vfpfcnvrt@fp,w
  2473     02D5  00F2               	movwf	fputc@fp
  2474     02D6  0821               	movf	vfpfcnvrt@fp+1,w
  2475     02D7  00F3               	movwf	fputc@fp+1
  2476     02D8  120A  158A  2766  120A  118A  	fcall	_fputc
  2477     02DD  2ABE               	goto	l1665
  2478     02DE                     l765:
  2479     02DE  0008               	return
  2480     02DF                     __end_of_vfpfcnvrt:
  2481                           
  2482                           	psect	text15
  2483     0F66                     __ptext15:	
  2484 ;; *************** function _fputc *****************
  2485 ;; Defined at:
  2486 ;;		line 8 in file "/Applications/microchip/xc8/v3.00/pic/sources/c99/common/nf_fputc.c"
  2487 ;; Parameters:    Size  Location     Type
  2488 ;;  c               2    0[COMMON] int 
  2489 ;;  fp              2    2[COMMON] PTR struct _IO_FILE
  2490 ;;		 -> sprintf@f(11), 
  2491 ;; Auto vars:     Size  Location     Type
  2492 ;;		None
  2493 ;; Return value:  Size  Location     Type
  2494 ;;                  2    0[COMMON] int 
  2495 ;; Registers used:
  2496 ;;		wreg, fsr0l, fsr0h, status,2, status,0, pclath, cstack
  2497 ;; Tracked objects:
  2498 ;;		On entry : 0/0
  2499 ;;		On exit  : 0/0
  2500 ;;		Unchanged: 0/0
  2501 ;; Data sizes:     COMMON   BANK0   BANK1   BANK3   BANK2
  2502 ;;      Params:         4       0       0       0       0
  2503 ;;      Locals:         0       0       0       0       0
  2504 ;;      Temps:          9       0       0       0       0
  2505 ;;      Totals:        13       0       0       0       0
  2506 ;;Total ram usage:       13 bytes
  2507 ;; Hardware stack levels used: 1
  2508 ;; Hardware stack levels required when called: 1
  2509 ;; This function calls:
  2510 ;;		_putch
  2511 ;; This function is called by:
  2512 ;;		_vfpfcnvrt
  2513 ;; This function uses a non-reentrant model
  2514 ;;
  2515                           
  2516     0F66                     _fputc:	
  2517                           ;psect for function _fputc
  2518                           
  2519     0F66                     l1603:	
  2520                           ;incstack = 0
  2521                           ; Regs used in _fputc: [wreg-fsr0h+status,2+status,0+pclath+cstack]
  2522                           
  2523     0F66  0872               	movf	fputc@fp,w
  2524     0F67  0473               	iorwf	fputc@fp+1,w
  2525     0F68  1903               	btfsc	3,2
  2526     0F69  2F6B               	goto	u1611
  2527     0F6A  2F6C               	goto	u1610
  2528     0F6B                     u1611:
  2529     0F6B  2F72               	goto	l1607
  2530     0F6C                     u1610:
  2531     0F6C                     l1605:
  2532     0F6C  0872               	movf	fputc@fp,w
  2533     0F6D  0473               	iorwf	fputc@fp+1,w
  2534     0F6E  1D03               	btfss	3,2
  2535     0F6F  2F71               	goto	u1621
  2536     0F70  2F72               	goto	u1620
  2537     0F71                     u1621:
  2538     0F71  2F79               	goto	l1609
  2539     0F72                     u1620:
  2540     0F72                     l1607:
  2541     0F72  0870               	movf	fputc@c,w
  2542     0F73  120A  118A  2004  120A  158A  	fcall	_putch
  2543     0F78  2FFF               	goto	l790
  2544     0F79                     l1609:
  2545     0F79  0872               	movf	fputc@fp,w
  2546     0F7A  3E09               	addlw	9
  2547     0F7B  00F4               	movwf	??_fputc
  2548     0F7C  0873               	movf	fputc@fp+1,w
  2549     0F7D  1803               	skipnc
  2550     0F7E  3E01               	addlw	1
  2551     0F7F  3E00               	addlw	0
  2552     0F80  00F5               	movwf	??_fputc+1
  2553     0F81  0874               	movf	??_fputc,w
  2554     0F82  0084               	movwf	4
  2555     0F83  1783               	bsf	3,7
  2556     0F84  1C75               	btfss	??_fputc+1,0
  2557     0F85  1383               	bcf	3,7
  2558     0F86  0800               	movf	0,w
  2559     0F87  00F6               	movwf	??_fputc+2
  2560     0F88  0A84               	incf	4,f
  2561     0F89  0800               	movf	0,w
  2562     0F8A  00F7               	movwf	??_fputc+3
  2563     0F8B  0876               	movf	??_fputc+2,w
  2564     0F8C  0477               	iorwf	??_fputc+3,w
  2565     0F8D  1903               	btfsc	3,2
  2566     0F8E  2F90               	goto	u1631
  2567     0F8F  2F91               	goto	u1630
  2568     0F90                     u1631:
  2569     0F90  2FC3               	goto	l1613
  2570     0F91                     u1630:
  2571     0F91                     l1611:
  2572     0F91  0872               	movf	fputc@fp,w
  2573     0F92  3E09               	addlw	9
  2574     0F93  00F4               	movwf	??_fputc
  2575     0F94  0873               	movf	fputc@fp+1,w
  2576     0F95  1803               	skipnc
  2577     0F96  3E01               	addlw	1
  2578     0F97  3E00               	addlw	0
  2579     0F98  00F5               	movwf	??_fputc+1
  2580     0F99  0874               	movf	??_fputc,w
  2581     0F9A  0084               	movwf	4
  2582     0F9B  1783               	bsf	3,7
  2583     0F9C  1C75               	btfss	??_fputc+1,0
  2584     0F9D  1383               	bcf	3,7
  2585     0F9E  0800               	movf	0,w
  2586     0F9F  00F6               	movwf	??_fputc+2
  2587     0FA0  0A84               	incf	4,f
  2588     0FA1  0800               	movf	0,w
  2589     0FA2  00F7               	movwf	??_fputc+3
  2590     0FA3  0872               	movf	fputc@fp,w
  2591     0FA4  3E02               	addlw	2
  2592     0FA5  00F8               	movwf	??_fputc+4
  2593     0FA6  0873               	movf	fputc@fp+1,w
  2594     0FA7  1803               	skipnc
  2595     0FA8  3E01               	addlw	1
  2596     0FA9  3E00               	addlw	0
  2597     0FAA  00F9               	movwf	??_fputc+5
  2598     0FAB  0878               	movf	??_fputc+4,w
  2599     0FAC  0084               	movwf	4
  2600     0FAD  1783               	bsf	3,7
  2601     0FAE  1C79               	btfss	??_fputc+5,0
  2602     0FAF  1383               	bcf	3,7
  2603     0FB0  0800               	movf	0,w
  2604     0FB1  00FA               	movwf	??_fputc+6
  2605     0FB2  0A84               	incf	4,f
  2606     0FB3  0800               	movf	0,w
  2607     0FB4  00FB               	movwf	??_fputc+7
  2608     0FB5  087B               	movf	??_fputc+7,w
  2609     0FB6  3A80               	xorlw	128
  2610     0FB7  00FC               	movwf	??_fputc+8
  2611     0FB8  0877               	movf	??_fputc+3,w
  2612     0FB9  3A80               	xorlw	128
  2613     0FBA  027C               	subwf	??_fputc+8,w
  2614     0FBB  1D03               	skipz
  2615     0FBC  2FBF               	goto	u1645
  2616     0FBD  0876               	movf	??_fputc+2,w
  2617     0FBE  027A               	subwf	??_fputc+6,w
  2618     0FBF                     u1645:
  2619     0FBF  1803               	skipnc
  2620     0FC0  2FC2               	goto	u1641
  2621     0FC1  2FC3               	goto	u1640
  2622     0FC2                     u1641:
  2623     0FC2  2FFF               	goto	l790
  2624     0FC3                     u1640:
  2625     0FC3                     l1613:
  2626     0FC3  0872               	movf	fputc@fp,w
  2627     0FC4  0084               	movwf	4
  2628     0FC5  1783               	bsf	3,7
  2629     0FC6  1C73               	btfss	fputc@fp+1,0
  2630     0FC7  1383               	bcf	3,7
  2631     0FC8  0800               	movf	0,w
  2632     0FC9  00F4               	movwf	??_fputc
  2633     0FCA  0A84               	incf	4,f
  2634     0FCB  0800               	movf	0,w
  2635     0FCC  00F5               	movwf	??_fputc+1
  2636     0FCD  0872               	movf	fputc@fp,w
  2637     0FCE  3E02               	addlw	2
  2638     0FCF  00F6               	movwf	??_fputc+2
  2639     0FD0  0873               	movf	fputc@fp+1,w
  2640     0FD1  1803               	skipnc
  2641     0FD2  3E01               	addlw	1
  2642     0FD3  3E00               	addlw	0
  2643     0FD4  00F7               	movwf	??_fputc+3
  2644     0FD5  0876               	movf	??_fputc+2,w
  2645     0FD6  0084               	movwf	4
  2646     0FD7  1783               	bsf	3,7
  2647     0FD8  1C77               	btfss	??_fputc+3,0
  2648     0FD9  1383               	bcf	3,7
  2649     0FDA  0800               	movf	0,w
  2650     0FDB  0774               	addwf	??_fputc,w
  2651     0FDC  00F9               	movwf	??_fputc+5
  2652     0FDD  0875               	movf	??_fputc+1,w
  2653     0FDE  00F8               	movwf	??_fputc+4
  2654     0FDF  1803               	skipnc
  2655     0FE0  0AF8               	incf	??_fputc+4,f
  2656     0FE1  1F80               	btfss	0,7
  2657     0FE2  2FE4               	goto	u1650
  2658     0FE3  03F8               	decf	??_fputc+4,f
  2659     0FE4                     u1650:
  2660     0FE4  0878               	movf	??_fputc+4,w
  2661     0FE5  00FA               	movwf	??_fputc+6
  2662     0FE6  0879               	movf	??_fputc+5,w
  2663     0FE7  0084               	movwf	4
  2664     0FE8  1783               	bsf	3,7
  2665     0FE9  1C7A               	btfss	??_fputc+6,0
  2666     0FEA  1383               	bcf	3,7
  2667     0FEB  0870               	movf	fputc@c,w
  2668     0FEC  0080               	movwf	0
  2669     0FED  0872               	movf	fputc@fp,w
  2670     0FEE  3E02               	addlw	2
  2671     0FEF  00F4               	movwf	??_fputc
  2672     0FF0  0873               	movf	fputc@fp+1,w
  2673     0FF1  1803               	skipnc
  2674     0FF2  3E01               	addlw	1
  2675     0FF3  3E00               	addlw	0
  2676     0FF4  00F5               	movwf	??_fputc+1
  2677     0FF5  0874               	movf	??_fputc,w
  2678     0FF6  0084               	movwf	4
  2679     0FF7  1783               	bsf	3,7
  2680     0FF8  1C75               	btfss	??_fputc+1,0
  2681     0FF9  1383               	bcf	3,7
  2682     0FFA  3001               	movlw	1
  2683     0FFB  0780               	addwf	0,f
  2684     0FFC  0A84               	incf	4,f
  2685     0FFD  1803               	skipnc
  2686     0FFE  0A80               	incf	0,f
  2687     0FFF                     l790:
  2688     0FFF  0008               	return
  2689     1000                     __end_of_fputc:
  2690                           
  2691                           	psect	text16
  2692     0004                     __ptext16:	
  2693 ;; *************** function _putch *****************
  2694 ;; Defined at:
  2695 ;;		line 7 in file "/Applications/microchip/xc8/v3.00/pic/sources/c99/common/putch.c"
  2696 ;; Parameters:    Size  Location     Type
  2697 ;;  c               1    wreg     unsigned char 
  2698 ;; Auto vars:     Size  Location     Type
  2699 ;;  c               1    0[COMMON] unsigned char 
  2700 ;; Return value:  Size  Location     Type
  2701 ;;                  1    wreg      void 
  2702 ;; Registers used:
  2703 ;;		wreg
  2704 ;; Tracked objects:
  2705 ;;		On entry : 0/0
  2706 ;;		On exit  : 0/0
  2707 ;;		Unchanged: 0/0
  2708 ;; Data sizes:     COMMON   BANK0   BANK1   BANK3   BANK2
  2709 ;;      Params:         0       0       0       0       0
  2710 ;;      Locals:         0       0       0       0       0
  2711 ;;      Temps:          0       0       0       0       0
  2712 ;;      Totals:         0       0       0       0       0
  2713 ;;Total ram usage:        0 bytes
  2714 ;; Hardware stack levels used: 1
  2715 ;; This function calls:
  2716 ;;		Nothing
  2717 ;; This function is called by:
  2718 ;;		_fputc
  2719 ;; This function uses a non-reentrant model
  2720 ;;
  2721                           
  2722     0004                     _putch:	
  2723                           ;psect for function _putch
  2724                           
  2725     0004                     l801:	
  2726                           ;incstack = 0
  2727                           ; Regs used in _putch: [wreg]
  2728                           
  2729     0004  0008               	return
  2730     0005                     __end_of_putch:
  2731                           
  2732                           	psect	text17
  2733     0C25                     __ptext17:	
  2734 ;; *************** function _abs *****************
  2735 ;; Defined at:
  2736 ;;		line 1 in file "/Applications/microchip/xc8/v3.00/pic/sources/c99/common/abs.c"
  2737 ;; Parameters:    Size  Location     Type
  2738 ;;  a               2    6[COMMON] int 
  2739 ;; Auto vars:     Size  Location     Type
  2740 ;;		None
  2741 ;; Return value:  Size  Location     Type
  2742 ;;                  2    6[COMMON] int 
  2743 ;; Registers used:
  2744 ;;		wreg, status,2, status,0
  2745 ;; Tracked objects:
  2746 ;;		On entry : 0/0
  2747 ;;		On exit  : 0/0
  2748 ;;		Unchanged: 0/0
  2749 ;; Data sizes:     COMMON   BANK0   BANK1   BANK3   BANK2
  2750 ;;      Params:         2       0       0       0       0
  2751 ;;      Locals:         0       0       0       0       0
  2752 ;;      Temps:          2       0       0       0       0
  2753 ;;      Totals:         4       0       0       0       0
  2754 ;;Total ram usage:        4 bytes
  2755 ;; Hardware stack levels used: 1
  2756 ;; This function calls:
  2757 ;;		Nothing
  2758 ;; This function is called by:
  2759 ;;		_vfpfcnvrt
  2760 ;; This function uses a non-reentrant model
  2761 ;;
  2762                           
  2763     0C25                     _abs:	
  2764                           ;psect for function _abs
  2765                           
  2766     0C25                     l1617:	
  2767                           ;incstack = 0
  2768                           ; Regs used in _abs: [wreg+status,2+status,0]
  2769                           
  2770     0C25  1BF7               	btfsc	abs@a+1,7
  2771     0C26  2C28               	goto	u1661
  2772     0C27  2C29               	goto	u1660
  2773     0C28                     u1661:
  2774     0C28  2C2A               	goto	l1621
  2775     0C29                     u1660:
  2776     0C29                     l1619:
  2777     0C29  2C35               	goto	l778
  2778     0C2A                     l1621:
  2779     0C2A  0976               	comf	abs@a,w
  2780     0C2B  00F8               	movwf	??_abs
  2781     0C2C  0977               	comf	abs@a+1,w
  2782     0C2D  00F9               	movwf	??_abs+1
  2783     0C2E  0AF8               	incf	??_abs,f
  2784     0C2F  1903               	skipnz
  2785     0C30  0AF9               	incf	??_abs+1,f
  2786     0C31  0878               	movf	??_abs,w
  2787     0C32  00F6               	movwf	?_abs
  2788     0C33  0879               	movf	??_abs+1,w
  2789     0C34  00F7               	movwf	?_abs+1
  2790     0C35                     l778:
  2791     0C35  0008               	return
  2792     0C36                     __end_of_abs:
  2793                           
  2794                           	psect	text18
  2795     0E99                     __ptext18:	
  2796 ;; *************** function ___awmod *****************
  2797 ;; Defined at:
  2798 ;;		line 5 in file "/Applications/microchip/xc8/v3.00/pic/sources/c99/common/awmod.c"
  2799 ;; Parameters:    Size  Location     Type
  2800 ;;  divisor         2    0[COMMON] int 
  2801 ;;  dividend        2    2[COMMON] int 
  2802 ;; Auto vars:     Size  Location     Type
  2803 ;;  sign            1    5[COMMON] unsigned char 
  2804 ;;  counter         1    4[COMMON] unsigned char 
  2805 ;; Return value:  Size  Location     Type
  2806 ;;                  2    0[COMMON] int 
  2807 ;; Registers used:
  2808 ;;		wreg, status,2, status,0
  2809 ;; Tracked objects:
  2810 ;;		On entry : 0/0
  2811 ;;		On exit  : 0/0
  2812 ;;		Unchanged: 0/0
  2813 ;; Data sizes:     COMMON   BANK0   BANK1   BANK3   BANK2
  2814 ;;      Params:         4       0       0       0       0
  2815 ;;      Locals:         2       0       0       0       0
  2816 ;;      Temps:          0       0       0       0       0
  2817 ;;      Totals:         6       0       0       0       0
  2818 ;;Total ram usage:        6 bytes
  2819 ;; Hardware stack levels used: 1
  2820 ;; This function calls:
  2821 ;;		Nothing
  2822 ;; This function is called by:
  2823 ;;		_vfpfcnvrt
  2824 ;; This function uses a non-reentrant model
  2825 ;;
  2826                           
  2827     0E99                     ___awmod:	
  2828                           ;psect for function ___awmod
  2829                           
  2830     0E99                     l1565:	
  2831                           ;incstack = 0
  2832                           ; Regs used in ___awmod: [wreg+status,2+status,0]
  2833                           
  2834     0E99  01F5               	clrf	___awmod@sign
  2835     0E9A                     l1567:
  2836     0E9A  1FF3               	btfss	___awmod@dividend+1,7
  2837     0E9B  2E9D               	goto	u1521
  2838     0E9C  2E9E               	goto	u1520
  2839     0E9D                     u1521:
  2840     0E9D  2EA5               	goto	l1573
  2841     0E9E                     u1520:
  2842     0E9E                     l1569:
  2843     0E9E  09F2               	comf	___awmod@dividend,f
  2844     0E9F  09F3               	comf	___awmod@dividend+1,f
  2845     0EA0  0AF2               	incf	___awmod@dividend,f
  2846     0EA1  1903               	skipnz
  2847     0EA2  0AF3               	incf	___awmod@dividend+1,f
  2848     0EA3                     l1571:
  2849     0EA3  3001               	movlw	1
  2850     0EA4  00F5               	movwf	___awmod@sign
  2851     0EA5                     l1573:
  2852     0EA5  1FF1               	btfss	___awmod@divisor+1,7
  2853     0EA6  2EA8               	goto	u1531
  2854     0EA7  2EA9               	goto	u1530
  2855     0EA8                     u1531:
  2856     0EA8  2EAE               	goto	l1577
  2857     0EA9                     u1530:
  2858     0EA9                     l1575:
  2859     0EA9  09F0               	comf	___awmod@divisor,f
  2860     0EAA  09F1               	comf	___awmod@divisor+1,f
  2861     0EAB  0AF0               	incf	___awmod@divisor,f
  2862     0EAC  1903               	skipnz
  2863     0EAD  0AF1               	incf	___awmod@divisor+1,f
  2864     0EAE                     l1577:
  2865     0EAE  0870               	movf	___awmod@divisor,w
  2866     0EAF  0471               	iorwf	___awmod@divisor+1,w
  2867     0EB0  1903               	btfsc	3,2
  2868     0EB1  2EB3               	goto	u1541
  2869     0EB2  2EB4               	goto	u1540
  2870     0EB3                     u1541:
  2871     0EB3  2EE1               	goto	l1595
  2872     0EB4                     u1540:
  2873     0EB4                     l1579:
  2874     0EB4  3001               	movlw	1
  2875     0EB5  00F4               	movwf	___awmod@counter
  2876     0EB6  2EC0               	goto	l1585
  2877     0EB7                     l1581:
  2878     0EB7  3001               	movlw	1
  2879     0EB8                     u1555:
  2880     0EB8  1003               	clrc
  2881     0EB9  0DF0               	rlf	___awmod@divisor,f
  2882     0EBA  0DF1               	rlf	___awmod@divisor+1,f
  2883     0EBB  3EFF               	addlw	-1
  2884     0EBC  1D03               	skipz
  2885     0EBD  2EB8               	goto	u1555
  2886     0EBE                     l1583:
  2887     0EBE  3001               	movlw	1
  2888     0EBF  07F4               	addwf	___awmod@counter,f
  2889     0EC0                     l1585:
  2890     0EC0  1FF1               	btfss	___awmod@divisor+1,7
  2891     0EC1  2EC3               	goto	u1561
  2892     0EC2  2EC4               	goto	u1560
  2893     0EC3                     u1561:
  2894     0EC3  2EB7               	goto	l1581
  2895     0EC4                     u1560:
  2896     0EC4                     l1587:
  2897     0EC4  0871               	movf	___awmod@divisor+1,w
  2898     0EC5  0273               	subwf	___awmod@dividend+1,w
  2899     0EC6  1D03               	skipz
  2900     0EC7  2ECA               	goto	u1575
  2901     0EC8  0870               	movf	___awmod@divisor,w
  2902     0EC9  0272               	subwf	___awmod@dividend,w
  2903     0ECA                     u1575:
  2904     0ECA  1C03               	skipc
  2905     0ECB  2ECD               	goto	u1571
  2906     0ECC  2ECE               	goto	u1570
  2907     0ECD                     u1571:
  2908     0ECD  2ED4               	goto	l1591
  2909     0ECE                     u1570:
  2910     0ECE                     l1589:
  2911     0ECE  0870               	movf	___awmod@divisor,w
  2912     0ECF  02F2               	subwf	___awmod@dividend,f
  2913     0ED0  0871               	movf	___awmod@divisor+1,w
  2914     0ED1  1C03               	skipc
  2915     0ED2  03F3               	decf	___awmod@dividend+1,f
  2916     0ED3  02F3               	subwf	___awmod@dividend+1,f
  2917     0ED4                     l1591:
  2918     0ED4  3001               	movlw	1
  2919     0ED5                     u1585:
  2920     0ED5  1003               	clrc
  2921     0ED6  0CF1               	rrf	___awmod@divisor+1,f
  2922     0ED7  0CF0               	rrf	___awmod@divisor,f
  2923     0ED8  3EFF               	addlw	-1
  2924     0ED9  1D03               	skipz
  2925     0EDA  2ED5               	goto	u1585
  2926     0EDB                     l1593:
  2927     0EDB  3001               	movlw	1
  2928     0EDC  02F4               	subwf	___awmod@counter,f
  2929     0EDD  1D03               	btfss	3,2
  2930     0EDE  2EE0               	goto	u1591
  2931     0EDF  2EE1               	goto	u1590
  2932     0EE0                     u1591:
  2933     0EE0  2EC4               	goto	l1587
  2934     0EE1                     u1590:
  2935     0EE1                     l1595:
  2936     0EE1  0875               	movf	___awmod@sign,w
  2937     0EE2  1903               	btfsc	3,2
  2938     0EE3  2EE5               	goto	u1601
  2939     0EE4  2EE6               	goto	u1600
  2940     0EE5                     u1601:
  2941     0EE5  2EEB               	goto	l1599
  2942     0EE6                     u1600:
  2943     0EE6                     l1597:
  2944     0EE6  09F2               	comf	___awmod@dividend,f
  2945     0EE7  09F3               	comf	___awmod@dividend+1,f
  2946     0EE8  0AF2               	incf	___awmod@dividend,f
  2947     0EE9  1903               	skipnz
  2948     0EEA  0AF3               	incf	___awmod@dividend+1,f
  2949     0EEB                     l1599:
  2950     0EEB  0873               	movf	___awmod@dividend+1,w
  2951     0EEC  00F1               	movwf	?___awmod+1
  2952     0EED  0872               	movf	___awmod@dividend,w
  2953     0EEE  00F0               	movwf	?___awmod
  2954     0EEF                     l424:
  2955     0EEF  0008               	return
  2956     0EF0                     __end_of___awmod:
  2957                           
  2958                           	psect	text19
  2959     0010                     __ptext19:	
  2960 ;; *************** function ___awdiv *****************
  2961 ;; Defined at:
  2962 ;;		line 5 in file "/Applications/microchip/xc8/v3.00/pic/sources/c99/common/awdiv.c"
  2963 ;; Parameters:    Size  Location     Type
  2964 ;;  divisor         2    0[COMMON] int 
  2965 ;;  dividend        2    2[COMMON] int 
  2966 ;; Auto vars:     Size  Location     Type
  2967 ;;  quotient        2    6[COMMON] int 
  2968 ;;  sign            1    5[COMMON] unsigned char 
  2969 ;;  counter         1    4[COMMON] unsigned char 
  2970 ;; Return value:  Size  Location     Type
  2971 ;;                  2    0[COMMON] int 
  2972 ;; Registers used:
  2973 ;;		wreg, status,2, status,0
  2974 ;; Tracked objects:
  2975 ;;		On entry : 0/0
  2976 ;;		On exit  : 0/0
  2977 ;;		Unchanged: 0/0
  2978 ;; Data sizes:     COMMON   BANK0   BANK1   BANK3   BANK2
  2979 ;;      Params:         4       0       0       0       0
  2980 ;;      Locals:         4       0       0       0       0
  2981 ;;      Temps:          0       0       0       0       0
  2982 ;;      Totals:         8       0       0       0       0
  2983 ;;Total ram usage:        8 bytes
  2984 ;; Hardware stack levels used: 1
  2985 ;; This function calls:
  2986 ;;		Nothing
  2987 ;; This function is called by:
  2988 ;;		_vfpfcnvrt
  2989 ;; This function uses a non-reentrant model
  2990 ;;
  2991                           
  2992     0010                     ___awdiv:	
  2993                           ;psect for function ___awdiv
  2994                           
  2995     0010                     l1521:	
  2996                           ;incstack = 0
  2997                           ; Regs used in ___awdiv: [wreg+status,2+status,0]
  2998                           
  2999     0010  01F5               	clrf	___awdiv@sign
  3000     0011                     l1523:
  3001     0011  1FF1               	btfss	___awdiv@divisor+1,7
  3002     0012  2814               	goto	u1421
  3003     0013  2815               	goto	u1420
  3004     0014                     u1421:
  3005     0014  281C               	goto	l1529
  3006     0015                     u1420:
  3007     0015                     l1525:
  3008     0015  09F0               	comf	___awdiv@divisor,f
  3009     0016  09F1               	comf	___awdiv@divisor+1,f
  3010     0017  0AF0               	incf	___awdiv@divisor,f
  3011     0018  1903               	skipnz
  3012     0019  0AF1               	incf	___awdiv@divisor+1,f
  3013     001A                     l1527:
  3014     001A  3001               	movlw	1
  3015     001B  00F5               	movwf	___awdiv@sign
  3016     001C                     l1529:
  3017     001C  1FF3               	btfss	___awdiv@dividend+1,7
  3018     001D  281F               	goto	u1431
  3019     001E  2820               	goto	u1430
  3020     001F                     u1431:
  3021     001F  2827               	goto	l1535
  3022     0020                     u1430:
  3023     0020                     l1531:
  3024     0020  09F2               	comf	___awdiv@dividend,f
  3025     0021  09F3               	comf	___awdiv@dividend+1,f
  3026     0022  0AF2               	incf	___awdiv@dividend,f
  3027     0023  1903               	skipnz
  3028     0024  0AF3               	incf	___awdiv@dividend+1,f
  3029     0025                     l1533:
  3030     0025  3001               	movlw	1
  3031     0026  06F5               	xorwf	___awdiv@sign,f
  3032     0027                     l1535:
  3033     0027  01F6               	clrf	___awdiv@quotient
  3034     0028  01F7               	clrf	___awdiv@quotient+1
  3035     0029                     l1537:
  3036     0029  0870               	movf	___awdiv@divisor,w
  3037     002A  0471               	iorwf	___awdiv@divisor+1,w
  3038     002B  1903               	btfsc	3,2
  3039     002C  282E               	goto	u1441
  3040     002D  282F               	goto	u1440
  3041     002E                     u1441:
  3042     002E  2864               	goto	l1557
  3043     002F                     u1440:
  3044     002F                     l1539:
  3045     002F  3001               	movlw	1
  3046     0030  00F4               	movwf	___awdiv@counter
  3047     0031  283B               	goto	l1545
  3048     0032                     l1541:
  3049     0032  3001               	movlw	1
  3050     0033                     u1455:
  3051     0033  1003               	clrc
  3052     0034  0DF0               	rlf	___awdiv@divisor,f
  3053     0035  0DF1               	rlf	___awdiv@divisor+1,f
  3054     0036  3EFF               	addlw	-1
  3055     0037  1D03               	skipz
  3056     0038  2833               	goto	u1455
  3057     0039                     l1543:
  3058     0039  3001               	movlw	1
  3059     003A  07F4               	addwf	___awdiv@counter,f
  3060     003B                     l1545:
  3061     003B  1FF1               	btfss	___awdiv@divisor+1,7
  3062     003C  283E               	goto	u1461
  3063     003D  283F               	goto	u1460
  3064     003E                     u1461:
  3065     003E  2832               	goto	l1541
  3066     003F                     u1460:
  3067     003F                     l1547:
  3068     003F  3001               	movlw	1
  3069     0040                     u1475:
  3070     0040  1003               	clrc
  3071     0041  0DF6               	rlf	___awdiv@quotient,f
  3072     0042  0DF7               	rlf	___awdiv@quotient+1,f
  3073     0043  3EFF               	addlw	-1
  3074     0044  1D03               	skipz
  3075     0045  2840               	goto	u1475
  3076     0046  0871               	movf	___awdiv@divisor+1,w
  3077     0047  0273               	subwf	___awdiv@dividend+1,w
  3078     0048  1D03               	skipz
  3079     0049  284C               	goto	u1485
  3080     004A  0870               	movf	___awdiv@divisor,w
  3081     004B  0272               	subwf	___awdiv@dividend,w
  3082     004C                     u1485:
  3083     004C  1C03               	skipc
  3084     004D  284F               	goto	u1481
  3085     004E  2850               	goto	u1480
  3086     004F                     u1481:
  3087     004F  2857               	goto	l1553
  3088     0050                     u1480:
  3089     0050                     l1549:
  3090     0050  0870               	movf	___awdiv@divisor,w
  3091     0051  02F2               	subwf	___awdiv@dividend,f
  3092     0052  0871               	movf	___awdiv@divisor+1,w
  3093     0053  1C03               	skipc
  3094     0054  03F3               	decf	___awdiv@dividend+1,f
  3095     0055  02F3               	subwf	___awdiv@dividend+1,f
  3096     0056                     l1551:
  3097     0056  1476               	bsf	___awdiv@quotient,0
  3098     0057                     l1553:
  3099     0057  3001               	movlw	1
  3100     0058                     u1495:
  3101     0058  1003               	clrc
  3102     0059  0CF1               	rrf	___awdiv@divisor+1,f
  3103     005A  0CF0               	rrf	___awdiv@divisor,f
  3104     005B  3EFF               	addlw	-1
  3105     005C  1D03               	skipz
  3106     005D  2858               	goto	u1495
  3107     005E                     l1555:
  3108     005E  3001               	movlw	1
  3109     005F  02F4               	subwf	___awdiv@counter,f
  3110     0060  1D03               	btfss	3,2
  3111     0061  2863               	goto	u1501
  3112     0062  2864               	goto	u1500
  3113     0063                     u1501:
  3114     0063  283F               	goto	l1547
  3115     0064                     u1500:
  3116     0064                     l1557:
  3117     0064  0875               	movf	___awdiv@sign,w
  3118     0065  1903               	btfsc	3,2
  3119     0066  2868               	goto	u1511
  3120     0067  2869               	goto	u1510
  3121     0068                     u1511:
  3122     0068  286E               	goto	l1561
  3123     0069                     u1510:
  3124     0069                     l1559:
  3125     0069  09F6               	comf	___awdiv@quotient,f
  3126     006A  09F7               	comf	___awdiv@quotient+1,f
  3127     006B  0AF6               	incf	___awdiv@quotient,f
  3128     006C  1903               	skipnz
  3129     006D  0AF7               	incf	___awdiv@quotient+1,f
  3130     006E                     l1561:
  3131     006E  0877               	movf	___awdiv@quotient+1,w
  3132     006F  00F1               	movwf	?___awdiv+1
  3133     0070  0876               	movf	___awdiv@quotient,w
  3134     0071  00F0               	movwf	?___awdiv
  3135     0072                     l411:
  3136     0072  0008               	return
  3137     0073                     __end_of___awdiv:
  3138                           
  3139                           	psect	text20
  3140     0C60                     __ptext20:	
  3141 ;; *************** function _memset *****************
  3142 ;; Defined at:
  3143 ;;		line 3 in file "/Applications/microchip/xc8/v3.00/pic/sources/c99/common/memset.c"
  3144 ;; Parameters:    Size  Location     Type
  3145 ;;  dest            1    0[COMMON] PTR void 
  3146 ;;		 -> adc_res_real_txt(7), 
  3147 ;;  c               2    1[COMMON] int 
  3148 ;;  n               2    3[COMMON] unsigned int 
  3149 ;; Auto vars:     Size  Location     Type
  3150 ;;  p               1    5[COMMON] PTR unsigned char 
  3151 ;;		 -> adc_res_real_txt(7), 
  3152 ;; Return value:  Size  Location     Type
  3153 ;;                  1    0[COMMON] PTR void 
  3154 ;; Registers used:
  3155 ;;		wreg, fsr0l, fsr0h, status,2, status,0
  3156 ;; Tracked objects:
  3157 ;;		On entry : 0/0
  3158 ;;		On exit  : 0/0
  3159 ;;		Unchanged: 0/0
  3160 ;; Data sizes:     COMMON   BANK0   BANK1   BANK3   BANK2
  3161 ;;      Params:         5       0       0       0       0
  3162 ;;      Locals:         1       0       0       0       0
  3163 ;;      Temps:          0       0       0       0       0
  3164 ;;      Totals:         6       0       0       0       0
  3165 ;;Total ram usage:        6 bytes
  3166 ;; Hardware stack levels used: 1
  3167 ;; This function calls:
  3168 ;;		Nothing
  3169 ;; This function is called by:
  3170 ;;		_convert_uint16_to_string
  3171 ;;		_convert_uint8_to_string
  3172 ;; This function uses a non-reentrant model
  3173 ;;
  3174                           
  3175     0C60                     _memset:	
  3176                           ;psect for function _memset
  3177                           
  3178     0C60                     l1705:	
  3179                           ;incstack = 0
  3180                           ; Regs used in _memset: [wreg-fsr0h+status,2+status,0]
  3181                           
  3182     0C60  0870               	movf	memset@dest,w
  3183     0C61  00F5               	movwf	memset@p
  3184     0C62  2C6A               	goto	l1711
  3185     0C63                     l1707:
  3186     0C63  0875               	movf	memset@p,w
  3187     0C64  0084               	movwf	4
  3188     0C65  0871               	movf	memset@c,w
  3189     0C66  1383               	bcf	3,7	;select IRP bank0
  3190     0C67  0080               	movwf	0
  3191     0C68                     l1709:
  3192     0C68  3001               	movlw	1
  3193     0C69  07F5               	addwf	memset@p,f
  3194     0C6A                     l1711:
  3195     0C6A  3001               	movlw	1
  3196     0C6B  02F3               	subwf	memset@n,f
  3197     0C6C  3000               	movlw	0
  3198     0C6D  1C03               	skipc
  3199     0C6E  03F4               	decf	memset@n+1,f
  3200     0C6F  02F4               	subwf	memset@n+1,f
  3201     0C70  0A73               	incf	memset@n,w
  3202     0C71  1D03               	skipz
  3203     0C72  2C77               	goto	u1821
  3204     0C73  0A74               	incf	memset@n+1,w
  3205     0C74  1D03               	btfss	3,2
  3206     0C75  2C77               	goto	u1821
  3207     0C76  2C78               	goto	u1820
  3208     0C77                     u1821:
  3209     0C77  2C63               	goto	l1707
  3210     0C78                     u1820:
  3211     0C78                     l720:
  3212     0C78  0008               	return
  3213     0C79                     __end_of_memset:
  3214                           
  3215                           	psect	text21
  3216     0DF7                     __ptext21:	
  3217 ;; *************** function _adc_read *****************
  3218 ;; Defined at:
  3219 ;;		line 94 in file "main.c"
  3220 ;; Parameters:    Size  Location     Type
  3221 ;;		None
  3222 ;; Auto vars:     Size  Location     Type
  3223 ;;  _adc_convers    2   66[BANK0 ] unsigned short 
  3224 ;; Return value:  Size  Location     Type
  3225 ;;                  2   62[BANK0 ] unsigned short 
  3226 ;; Registers used:
  3227 ;;		wreg, status,2, status,0, btemp+1, pclath, cstack
  3228 ;; Tracked objects:
  3229 ;;		On entry : 0/0
  3230 ;;		On exit  : 0/0
  3231 ;;		Unchanged: 0/0
  3232 ;; Data sizes:     COMMON   BANK0   BANK1   BANK3   BANK2
  3233 ;;      Params:         0       2       0       0       0
  3234 ;;      Locals:         0       2       0       0       0
  3235 ;;      Temps:          0       2       0       0       0
  3236 ;;      Totals:         0       6       0       0       0
  3237 ;;Total ram usage:        6 bytes
  3238 ;; Hardware stack levels used: 1
  3239 ;; Hardware stack levels required when called: 1
  3240 ;; This function calls:
  3241 ;;		___fltol
  3242 ;;		___xxtofl
  3243 ;; This function is called by:
  3244 ;;		_main
  3245 ;; This function uses a non-reentrant model
  3246 ;;
  3247                           
  3248     0DF7                     _adc_read:	
  3249                           ;psect for function _adc_read
  3250                           
  3251     0DF7                     l1873:	
  3252                           ;incstack = 0
  3253                           ; Regs used in _adc_read: [wreg+status,2+status,0+btemp+1+pclath+cstack]
  3254                           
  3255     0DF7                     l1875:
  3256                           
  3257                           ;main.c: 97:      _delay((unsigned long)((20)*(4000000UL/4000000.0)));
  3258     0DF7  3005               	movlw	5
  3259     0DF8  1283               	bcf	3,5	;RP0=0, select bank0
  3260     0DF9  1303               	bcf	3,6	;RP1=0, select bank0
  3261     0DFA  00E0               	movwf	??_adc_read
  3262     0DFB                     u2857:
  3263     0DFB  0BE0               	decfsz	??_adc_read,f
  3264     0DFC  2DFB               	goto	u2857
  3265     0DFD  2DFE               	nop2
  3266     0DFE                     l1877:
  3267                           
  3268                           ;main.c: 99:      (ADCON0 |= (1 << 1));
  3269     0DFE  1283               	bcf	3,5	;RP0=0, select bank0
  3270     0DFF  1303               	bcf	3,6	;RP1=0, select bank0
  3271     0E00  149F               	bsf	31,1	;volatile
  3272     0E01                     l1879:	
  3273                           ;main.c: 102:      while (((ADCON0 >> 1) & 1));
  3274                           
  3275     0E01  081F               	movf	31,w	;volatile
  3276     0E02  00E0               	movwf	??_adc_read
  3277     0E03  3001               	movlw	1
  3278     0E04                     u2105:
  3279     0E04  1003               	clrc
  3280     0E05  0CE0               	rrf	??_adc_read,f
  3281     0E06  3EFF               	addlw	-1
  3282     0E07  1D03               	skipz
  3283     0E08  2E04               	goto	u2105
  3284     0E09  1860               	btfsc	??_adc_read,0
  3285     0E0A  2E0C               	goto	u2111
  3286     0E0B  2E0D               	goto	u2110
  3287     0E0C                     u2111:
  3288     0E0C  2E01               	goto	l1879
  3289     0E0D                     u2110:
  3290     0E0D                     l1881:
  3291                           
  3292                           ;main.c: 105:      _adc_conversion_result = (double) (((ADRESH << 8) + ADRESL));
  3293     0E0D  081E               	movf	30,w	;volatile
  3294     0E0E  00E0               	movwf	??_adc_read
  3295     0E0F  01E1               	clrf	??_adc_read+1
  3296     0E10  0860               	movf	??_adc_read,w
  3297     0E11  00E1               	movwf	??_adc_read+1
  3298     0E12  01E0               	clrf	??_adc_read
  3299     0E13  1683               	bsf	3,5	;RP0=1, select bank1
  3300     0E14  1303               	bcf	3,6	;RP1=0, select bank1
  3301     0E15  081E               	movf	30,w	;volatile
  3302     0E16  1283               	bcf	3,5	;RP0=0, select bank0
  3303     0E17  1303               	bcf	3,6	;RP1=0, select bank0
  3304     0E18  0760               	addwf	??_adc_read,w
  3305     0E19  00F0               	movwf	___xxtofl@val
  3306     0E1A  3000               	movlw	0
  3307     0E1B  1803               	skipnc
  3308     0E1C  3001               	movlw	1
  3309     0E1D  0761               	addwf	??_adc_read+1,w
  3310     0E1E  00F1               	movwf	___xxtofl@val+1
  3311     0E1F  01F2               	clrf	___xxtofl@val+2
  3312     0E20  1BF1               	btfsc	___xxtofl@val+1,7
  3313     0E21  03F2               	decf	___xxtofl@val+2,f
  3314     0E22  0872               	movf	___xxtofl@val+2,w
  3315     0E23  00F3               	movwf	___xxtofl@val+3
  3316     0E24  3001               	movlw	1
  3317     0E25  120A  118A  2073  120A  158A  	fcall	___xxtofl
  3318     0E2A  0873               	movf	?___xxtofl+3,w
  3319     0E2B  1283               	bcf	3,5	;RP0=0, select bank0
  3320     0E2C  1303               	bcf	3,6	;RP1=0, select bank0
  3321     0E2D  00D7               	movwf	___fltol@f1+3
  3322     0E2E  0872               	movf	?___xxtofl+2,w
  3323     0E2F  00D6               	movwf	___fltol@f1+2
  3324     0E30  0871               	movf	?___xxtofl+1,w
  3325     0E31  00D5               	movwf	___fltol@f1+1
  3326     0E32  0870               	movf	?___xxtofl,w
  3327     0E33  00D4               	movwf	___fltol@f1
  3328     0E34  120A  158A  26F0  120A  158A  	fcall	___fltol
  3329     0E39  1283               	bcf	3,5	;RP0=0, select bank0
  3330     0E3A  1303               	bcf	3,6	;RP1=0, select bank0
  3331     0E3B  0855               	movf	?___fltol+1,w
  3332     0E3C  00E3               	movwf	adc_read@_adc_conversion_result+1
  3333     0E3D  0854               	movf	?___fltol,w
  3334     0E3E  00E2               	movwf	adc_read@_adc_conversion_result
  3335     0E3F                     l1883:
  3336                           
  3337                           ;main.c: 106:      return _adc_conversion_result;
  3338     0E3F  0863               	movf	adc_read@_adc_conversion_result+1,w
  3339     0E40  00DF               	movwf	?_adc_read+1
  3340     0E41  0862               	movf	adc_read@_adc_conversion_result,w
  3341     0E42  00DE               	movwf	?_adc_read
  3342     0E43                     l111:
  3343     0E43  0008               	return
  3344     0E44                     __end_of_adc_read:
  3345                           
  3346                           	psect	text22
  3347     0073                     __ptext22:	
  3348 ;; *************** function ___xxtofl *****************
  3349 ;; Defined at:
  3350 ;;		line 10 in file "/Applications/microchip/xc8/v3.00/pic/sources/c99/common/xxtofl.c"
  3351 ;; Parameters:    Size  Location     Type
  3352 ;;  sign            1    wreg     unsigned char 
  3353 ;;  val             4    0[COMMON] long 
  3354 ;; Auto vars:     Size  Location     Type
  3355 ;;  sign            1    8[COMMON] unsigned char 
  3356 ;;  arg             4   10[COMMON] unsigned long 
  3357 ;;  exp             1    9[COMMON] unsigned char 
  3358 ;; Return value:  Size  Location     Type
  3359 ;;                  4    0[COMMON] unsigned char 
  3360 ;; Registers used:
  3361 ;;		wreg, status,2, status,0
  3362 ;; Tracked objects:
  3363 ;;		On entry : 0/0
  3364 ;;		On exit  : 0/0
  3365 ;;		Unchanged: 0/0
  3366 ;; Data sizes:     COMMON   BANK0   BANK1   BANK3   BANK2
  3367 ;;      Params:         4       0       0       0       0
  3368 ;;      Locals:         6       0       0       0       0
  3369 ;;      Temps:          4       0       0       0       0
  3370 ;;      Totals:        14       0       0       0       0
  3371 ;;Total ram usage:       14 bytes
  3372 ;; Hardware stack levels used: 1
  3373 ;; This function calls:
  3374 ;;		Nothing
  3375 ;; This function is called by:
  3376 ;;		_main
  3377 ;;		_adc_read
  3378 ;; This function uses a non-reentrant model
  3379 ;;
  3380                           
  3381     0073                     ___xxtofl:	
  3382                           ;psect for function ___xxtofl
  3383                           
  3384                           
  3385                           ;incstack = 0
  3386                           ; Regs used in ___xxtofl: [wreg+status,2+status,0]
  3387                           ;___xxtofl@sign stored from wreg
  3388     0073  00F8               	movwf	___xxtofl@sign
  3389     0074                     l1777:
  3390     0074  0878               	movf	___xxtofl@sign,w
  3391     0075  1903               	btfsc	3,2
  3392     0076  2878               	goto	u1961
  3393     0077  2879               	goto	u1960
  3394     0078                     u1961:
  3395     0078  288D               	goto	l1783
  3396     0079                     u1960:
  3397     0079                     l1779:
  3398     0079  1FF3               	btfss	___xxtofl@val+3,7
  3399     007A  287C               	goto	u1971
  3400     007B  287D               	goto	u1970
  3401     007C                     u1971:
  3402     007C  288D               	goto	l1783
  3403     007D                     u1970:
  3404     007D                     l1781:
  3405     007D  0970               	comf	___xxtofl@val,w
  3406     007E  00FA               	movwf	___xxtofl@arg
  3407     007F  0971               	comf	___xxtofl@val+1,w
  3408     0080  00FB               	movwf	___xxtofl@arg+1
  3409     0081  0972               	comf	___xxtofl@val+2,w
  3410     0082  00FC               	movwf	___xxtofl@arg+2
  3411     0083  0973               	comf	___xxtofl@val+3,w
  3412     0084  00FD               	movwf	___xxtofl@arg+3
  3413     0085  0AFA               	incf	___xxtofl@arg,f
  3414     0086  1903               	skipnz
  3415     0087  0AFB               	incf	___xxtofl@arg+1,f
  3416     0088  1903               	skipnz
  3417     0089  0AFC               	incf	___xxtofl@arg+2,f
  3418     008A  1903               	skipnz
  3419     008B  0AFD               	incf	___xxtofl@arg+3,f
  3420     008C  2895               	goto	l699
  3421     008D                     l1783:
  3422     008D  0873               	movf	___xxtofl@val+3,w
  3423     008E  00FD               	movwf	___xxtofl@arg+3
  3424     008F  0872               	movf	___xxtofl@val+2,w
  3425     0090  00FC               	movwf	___xxtofl@arg+2
  3426     0091  0871               	movf	___xxtofl@val+1,w
  3427     0092  00FB               	movwf	___xxtofl@arg+1
  3428     0093  0870               	movf	___xxtofl@val,w
  3429     0094  00FA               	movwf	___xxtofl@arg
  3430     0095                     l699:
  3431     0095  0873               	movf	___xxtofl@val+3,w
  3432     0096  0472               	iorwf	___xxtofl@val+2,w
  3433     0097  0471               	iorwf	___xxtofl@val+1,w
  3434     0098  0470               	iorwf	___xxtofl@val,w
  3435     0099  1D03               	skipz
  3436     009A  289C               	goto	u1981
  3437     009B  289D               	goto	u1980
  3438     009C                     u1981:
  3439     009C  28A6               	goto	l700
  3440     009D                     u1980:
  3441     009D                     l1785:
  3442     009D  3000               	movlw	0
  3443     009E  00F3               	movwf	?___xxtofl+3
  3444     009F  3000               	movlw	0
  3445     00A0  00F2               	movwf	?___xxtofl+2
  3446     00A1  3000               	movlw	0
  3447     00A2  00F1               	movwf	?___xxtofl+1
  3448     00A3  3000               	movlw	0
  3449     00A4  00F0               	movwf	?___xxtofl
  3450     00A5  2926               	goto	l701
  3451     00A6                     l700:
  3452     00A6  3096               	movlw	150
  3453     00A7  00F9               	movwf	___xxtofl@exp
  3454     00A8  28B4               	goto	l1791
  3455     00A9                     l1789:
  3456     00A9  3001               	movlw	1
  3457     00AA  07F9               	addwf	___xxtofl@exp,f
  3458     00AB  3001               	movlw	1
  3459     00AC                     u1995:
  3460     00AC  1003               	clrc
  3461     00AD  0CFD               	rrf	___xxtofl@arg+3,f
  3462     00AE  0CFC               	rrf	___xxtofl@arg+2,f
  3463     00AF  0CFB               	rrf	___xxtofl@arg+1,f
  3464     00B0  0CFA               	rrf	___xxtofl@arg,f
  3465     00B1  3EFF               	addlw	-1
  3466     00B2  1D03               	skipz
  3467     00B3  28AC               	goto	u1995
  3468     00B4                     l1791:
  3469     00B4  30FE               	movlw	254
  3470     00B5  057D               	andwf	___xxtofl@arg+3,w
  3471     00B6  1D03               	btfss	3,2
  3472     00B7  28B9               	goto	u2001
  3473     00B8  28BA               	goto	u2000
  3474     00B9                     u2001:
  3475     00B9  28A9               	goto	l1789
  3476     00BA                     u2000:
  3477     00BA  28D4               	goto	l705
  3478     00BB                     l1793:
  3479     00BB  3001               	movlw	1
  3480     00BC  07F9               	addwf	___xxtofl@exp,f
  3481     00BD                     l1795:
  3482     00BD  3001               	movlw	1
  3483     00BE  07FA               	addwf	___xxtofl@arg,f
  3484     00BF  3000               	movlw	0
  3485     00C0  1803               	skipnc
  3486     00C1  3001               	movlw	1
  3487     00C2  07FB               	addwf	___xxtofl@arg+1,f
  3488     00C3  3000               	movlw	0
  3489     00C4  1803               	skipnc
  3490     00C5  3001               	movlw	1
  3491     00C6  07FC               	addwf	___xxtofl@arg+2,f
  3492     00C7  3000               	movlw	0
  3493     00C8  1803               	skipnc
  3494     00C9  3001               	movlw	1
  3495     00CA  07FD               	addwf	___xxtofl@arg+3,f
  3496     00CB                     l1797:
  3497     00CB  3001               	movlw	1
  3498     00CC                     u2015:
  3499     00CC  1003               	clrc
  3500     00CD  0CFD               	rrf	___xxtofl@arg+3,f
  3501     00CE  0CFC               	rrf	___xxtofl@arg+2,f
  3502     00CF  0CFB               	rrf	___xxtofl@arg+1,f
  3503     00D0  0CFA               	rrf	___xxtofl@arg,f
  3504     00D1  3EFF               	addlw	-1
  3505     00D2  1D03               	skipz
  3506     00D3  28CC               	goto	u2015
  3507     00D4                     l705:
  3508     00D4  30FF               	movlw	255
  3509     00D5  057D               	andwf	___xxtofl@arg+3,w
  3510     00D6  1D03               	btfss	3,2
  3511     00D7  28D9               	goto	u2021
  3512     00D8  28DA               	goto	u2020
  3513     00D9                     u2021:
  3514     00D9  28BB               	goto	l1793
  3515     00DA                     u2020:
  3516     00DA  28E6               	goto	l1801
  3517     00DB                     l1799:
  3518     00DB  3001               	movlw	1
  3519     00DC  02F9               	subwf	___xxtofl@exp,f
  3520     00DD  3001               	movlw	1
  3521     00DE  00F4               	movwf	??___xxtofl
  3522     00DF                     u2035:
  3523     00DF  1003               	clrc
  3524     00E0  0DFA               	rlf	___xxtofl@arg,f
  3525     00E1  0DFB               	rlf	___xxtofl@arg+1,f
  3526     00E2  0DFC               	rlf	___xxtofl@arg+2,f
  3527     00E3  0DFD               	rlf	___xxtofl@arg+3,f
  3528     00E4  0BF4               	decfsz	??___xxtofl,f
  3529     00E5  28DF               	goto	u2035
  3530     00E6                     l1801:
  3531     00E6  1BFC               	btfsc	___xxtofl@arg+2,7
  3532     00E7  28E9               	goto	u2041
  3533     00E8  28EA               	goto	u2040
  3534     00E9                     u2041:
  3535     00E9  28F0               	goto	l712
  3536     00EA                     u2040:
  3537     00EA                     l1803:
  3538     00EA  3002               	movlw	2
  3539     00EB  0279               	subwf	___xxtofl@exp,w
  3540     00EC  1803               	skipnc
  3541     00ED  28EF               	goto	u2051
  3542     00EE  28F0               	goto	u2050
  3543     00EF                     u2051:
  3544     00EF  28DB               	goto	l1799
  3545     00F0                     u2050:
  3546     00F0                     l712:
  3547     00F0  1879               	btfsc	___xxtofl@exp,0
  3548     00F1  28F3               	goto	u2061
  3549     00F2  28F4               	goto	u2060
  3550     00F3                     u2061:
  3551     00F3  28FC               	goto	l713
  3552     00F4                     u2060:
  3553     00F4                     l1805:
  3554     00F4  30FF               	movlw	255
  3555     00F5  05FA               	andwf	___xxtofl@arg,f
  3556     00F6  30FF               	movlw	255
  3557     00F7  05FB               	andwf	___xxtofl@arg+1,f
  3558     00F8  307F               	movlw	127
  3559     00F9  05FC               	andwf	___xxtofl@arg+2,f
  3560     00FA  30FF               	movlw	255
  3561     00FB  05FD               	andwf	___xxtofl@arg+3,f
  3562     00FC                     l713:
  3563     00FC  1003               	clrc
  3564     00FD  0CF9               	rrf	___xxtofl@exp,f
  3565     00FE                     l1807:
  3566     00FE  0879               	movf	___xxtofl@exp,w
  3567     00FF  00F4               	movwf	??___xxtofl
  3568     0100  01F5               	clrf	??___xxtofl+1
  3569     0101  01F6               	clrf	??___xxtofl+2
  3570     0102  01F7               	clrf	??___xxtofl+3
  3571     0103  3018               	movlw	24
  3572     0104                     u2075:
  3573     0104  1003               	clrc
  3574     0105  0DF4               	rlf	??___xxtofl,f
  3575     0106  0DF5               	rlf	??___xxtofl+1,f
  3576     0107  0DF6               	rlf	??___xxtofl+2,f
  3577     0108  0DF7               	rlf	??___xxtofl+3,f
  3578     0109                     u2070:
  3579     0109  3EFF               	addlw	-1
  3580     010A  1D03               	skipz
  3581     010B  2904               	goto	u2075
  3582     010C  0874               	movf	??___xxtofl,w
  3583     010D  04FA               	iorwf	___xxtofl@arg,f
  3584     010E  0875               	movf	??___xxtofl+1,w
  3585     010F  04FB               	iorwf	___xxtofl@arg+1,f
  3586     0110  0876               	movf	??___xxtofl+2,w
  3587     0111  04FC               	iorwf	___xxtofl@arg+2,f
  3588     0112  0877               	movf	??___xxtofl+3,w
  3589     0113  04FD               	iorwf	___xxtofl@arg+3,f
  3590     0114                     l1809:
  3591     0114  0878               	movf	___xxtofl@sign,w
  3592     0115  1903               	btfsc	3,2
  3593     0116  2918               	goto	u2081
  3594     0117  2919               	goto	u2080
  3595     0118                     u2081:
  3596     0118  291E               	goto	l1815
  3597     0119                     u2080:
  3598     0119                     l1811:
  3599     0119  1FF3               	btfss	___xxtofl@val+3,7
  3600     011A  291C               	goto	u2091
  3601     011B  291D               	goto	u2090
  3602     011C                     u2091:
  3603     011C  291E               	goto	l1815
  3604     011D                     u2090:
  3605     011D                     l1813:
  3606     011D  17FD               	bsf	___xxtofl@arg+3,7
  3607     011E                     l1815:
  3608     011E  087D               	movf	___xxtofl@arg+3,w
  3609     011F  00F3               	movwf	?___xxtofl+3
  3610     0120  087C               	movf	___xxtofl@arg+2,w
  3611     0121  00F2               	movwf	?___xxtofl+2
  3612     0122  087B               	movf	___xxtofl@arg+1,w
  3613     0123  00F1               	movwf	?___xxtofl+1
  3614     0124  087A               	movf	___xxtofl@arg,w
  3615     0125  00F0               	movwf	?___xxtofl
  3616     0126                     l701:
  3617     0126  0008               	return
  3618     0127                     __end_of___xxtofl:
  3619                           
  3620                           	psect	text23
  3621     0EF0                     __ptext23:	
  3622 ;; *************** function ___fltol *****************
  3623 ;; Defined at:
  3624 ;;		line 43 in file "/Applications/microchip/xc8/v3.00/pic/sources/c99/common/fltol.c"
  3625 ;; Parameters:    Size  Location     Type
  3626 ;;  f1              4   52[BANK0 ] unsigned char 
  3627 ;; Auto vars:     Size  Location     Type
  3628 ;;  exp1            1   61[BANK0 ] unsigned char 
  3629 ;;  sign1           1   60[BANK0 ] unsigned char 
  3630 ;; Return value:  Size  Location     Type
  3631 ;;                  4   52[BANK0 ] long 
  3632 ;; Registers used:
  3633 ;;		wreg, status,2, status,0
  3634 ;; Tracked objects:
  3635 ;;		On entry : 0/0
  3636 ;;		On exit  : 0/0
  3637 ;;		Unchanged: 0/0
  3638 ;; Data sizes:     COMMON   BANK0   BANK1   BANK3   BANK2
  3639 ;;      Params:         0       4       0       0       0
  3640 ;;      Locals:         0       2       0       0       0
  3641 ;;      Temps:          0       4       0       0       0
  3642 ;;      Totals:         0      10       0       0       0
  3643 ;;Total ram usage:       10 bytes
  3644 ;; Hardware stack levels used: 1
  3645 ;; This function calls:
  3646 ;;		Nothing
  3647 ;; This function is called by:
  3648 ;;		_main
  3649 ;;		_adc_read
  3650 ;; This function uses a non-reentrant model
  3651 ;;
  3652                           
  3653     0EF0                     ___fltol:	
  3654                           ;psect for function ___fltol
  3655                           
  3656     0EF0                     l1727:	
  3657                           ;incstack = 0
  3658                           ; Regs used in ___fltol: [wreg+status,2+status,0]
  3659                           
  3660     0EF0  1003               	clrc
  3661     0EF1  1283               	bcf	3,5	;RP0=0, select bank0
  3662     0EF2  1303               	bcf	3,6	;RP1=0, select bank0
  3663     0EF3  0D56               	rlf	___fltol@f1+2,w
  3664     0EF4  0D57               	rlf	___fltol@f1+3,w
  3665     0EF5  00DD               	movwf	___fltol@exp1
  3666     0EF6  085D               	movf	___fltol@exp1,w
  3667     0EF7  1D03               	btfss	3,2
  3668     0EF8  2EFA               	goto	u1831
  3669     0EF9  2EFB               	goto	u1830
  3670     0EFA                     u1831:
  3671     0EFA  2F04               	goto	l1733
  3672     0EFB                     u1830:
  3673     0EFB                     l1729:
  3674     0EFB  3000               	movlw	0
  3675     0EFC  00D7               	movwf	?___fltol+3
  3676     0EFD  3000               	movlw	0
  3677     0EFE  00D6               	movwf	?___fltol+2
  3678     0EFF  3000               	movlw	0
  3679     0F00  00D5               	movwf	?___fltol+1
  3680     0F01  3000               	movlw	0
  3681     0F02  00D4               	movwf	?___fltol
  3682     0F03  2F65               	goto	l452
  3683     0F04                     l1733:
  3684     0F04  0854               	movf	___fltol@f1,w
  3685     0F05  00D8               	movwf	??___fltol
  3686     0F06  0855               	movf	___fltol@f1+1,w
  3687     0F07  00D9               	movwf	??___fltol+1
  3688     0F08  0856               	movf	___fltol@f1+2,w
  3689     0F09  00DA               	movwf	??___fltol+2
  3690     0F0A  0857               	movf	___fltol@f1+3,w
  3691     0F0B  00DB               	movwf	??___fltol+3
  3692     0F0C  301F               	movlw	31
  3693     0F0D                     u1845:
  3694     0F0D  1003               	clrc
  3695     0F0E  0CDB               	rrf	??___fltol+3,f
  3696     0F0F  0CDA               	rrf	??___fltol+2,f
  3697     0F10  0CD9               	rrf	??___fltol+1,f
  3698     0F11  0CD8               	rrf	??___fltol,f
  3699     0F12                     u1840:
  3700     0F12  3EFF               	addlw	-1
  3701     0F13  1D03               	skipz
  3702     0F14  2F0D               	goto	u1845
  3703     0F15  0858               	movf	??___fltol,w
  3704     0F16  00DC               	movwf	___fltol@sign1
  3705     0F17                     l1735:
  3706     0F17  17D6               	bsf	___fltol@f1+2,7
  3707     0F18                     l1737:
  3708     0F18  30FF               	movlw	255
  3709     0F19  05D4               	andwf	___fltol@f1,f
  3710     0F1A  30FF               	movlw	255
  3711     0F1B  05D5               	andwf	___fltol@f1+1,f
  3712     0F1C  30FF               	movlw	255
  3713     0F1D  05D6               	andwf	___fltol@f1+2,f
  3714     0F1E  3000               	movlw	0
  3715     0F1F  05D7               	andwf	___fltol@f1+3,f
  3716     0F20                     l1739:
  3717     0F20  3096               	movlw	150
  3718     0F21  02DD               	subwf	___fltol@exp1,f
  3719     0F22                     l1741:
  3720     0F22  1FDD               	btfss	___fltol@exp1,7
  3721     0F23  2F25               	goto	u1851
  3722     0F24  2F26               	goto	u1850
  3723     0F25                     u1851:
  3724     0F25  2F3E               	goto	l1751
  3725     0F26                     u1850:
  3726     0F26                     l1743:
  3727     0F26  085D               	movf	___fltol@exp1,w
  3728     0F27  3A80               	xorlw	128
  3729     0F28  3E97               	addlw	151
  3730     0F29  1803               	skipnc
  3731     0F2A  2F2C               	goto	u1861
  3732     0F2B  2F2D               	goto	u1860
  3733     0F2C                     u1861:
  3734     0F2C  2F2E               	goto	l1749
  3735     0F2D                     u1860:
  3736     0F2D  2EFB               	goto	l1729
  3737     0F2E                     l1749:
  3738     0F2E  3001               	movlw	1
  3739     0F2F                     u1875:
  3740     0F2F  1003               	clrc
  3741     0F30  0CD7               	rrf	___fltol@f1+3,f
  3742     0F31  0CD6               	rrf	___fltol@f1+2,f
  3743     0F32  0CD5               	rrf	___fltol@f1+1,f
  3744     0F33  0CD4               	rrf	___fltol@f1,f
  3745     0F34  3EFF               	addlw	-1
  3746     0F35  1D03               	skipz
  3747     0F36  2F2F               	goto	u1875
  3748     0F37  3001               	movlw	1
  3749     0F38  07DD               	addwf	___fltol@exp1,f
  3750     0F39  1D03               	btfss	3,2
  3751     0F3A  2F3C               	goto	u1881
  3752     0F3B  2F3D               	goto	u1880
  3753     0F3C                     u1881:
  3754     0F3C  2F2E               	goto	l1749
  3755     0F3D                     u1880:
  3756     0F3D  2F55               	goto	l1759
  3757     0F3E                     l1751:
  3758     0F3E  3020               	movlw	32
  3759     0F3F  025D               	subwf	___fltol@exp1,w
  3760     0F40  1C03               	skipc
  3761     0F41  2F43               	goto	u1891
  3762     0F42  2F44               	goto	u1890
  3763     0F43                     u1891:
  3764     0F43  2F50               	goto	l459
  3765     0F44                     u1890:
  3766     0F44  2EFB               	goto	l1729
  3767     0F45                     l1757:
  3768     0F45  3001               	movlw	1
  3769     0F46  00D8               	movwf	??___fltol
  3770     0F47                     u1905:
  3771     0F47  1003               	clrc
  3772     0F48  0DD4               	rlf	___fltol@f1,f
  3773     0F49  0DD5               	rlf	___fltol@f1+1,f
  3774     0F4A  0DD6               	rlf	___fltol@f1+2,f
  3775     0F4B  0DD7               	rlf	___fltol@f1+3,f
  3776     0F4C  0BD8               	decfsz	??___fltol,f
  3777     0F4D  2F47               	goto	u1905
  3778     0F4E  3001               	movlw	1
  3779     0F4F  02DD               	subwf	___fltol@exp1,f
  3780     0F50                     l459:
  3781     0F50  085D               	movf	___fltol@exp1,w
  3782     0F51  1D03               	btfss	3,2
  3783     0F52  2F54               	goto	u1911
  3784     0F53  2F55               	goto	u1910
  3785     0F54                     u1911:
  3786     0F54  2F45               	goto	l1757
  3787     0F55                     u1910:
  3788     0F55                     l1759:
  3789     0F55  085C               	movf	___fltol@sign1,w
  3790     0F56  1903               	btfsc	3,2
  3791     0F57  2F59               	goto	u1921
  3792     0F58  2F5A               	goto	u1920
  3793     0F59                     u1921:
  3794     0F59  2F65               	goto	l462
  3795     0F5A                     u1920:
  3796     0F5A                     l1761:
  3797     0F5A  09D4               	comf	___fltol@f1,f
  3798     0F5B  09D5               	comf	___fltol@f1+1,f
  3799     0F5C  09D6               	comf	___fltol@f1+2,f
  3800     0F5D  09D7               	comf	___fltol@f1+3,f
  3801     0F5E  0AD4               	incf	___fltol@f1,f
  3802     0F5F  1903               	skipnz
  3803     0F60  0AD5               	incf	___fltol@f1+1,f
  3804     0F61  1903               	skipnz
  3805     0F62  0AD6               	incf	___fltol@f1+2,f
  3806     0F63  1903               	skipnz
  3807     0F64  0AD7               	incf	___fltol@f1+3,f
  3808     0F65                     l462:
  3809     0F65                     l452:
  3810     0F65  0008               	return
  3811     0F66                     __end_of___fltol:
  3812                           
  3813                           	psect	text24
  3814     0CFF                     __ptext24:	
  3815 ;; *************** function _adc_initialize *****************
  3816 ;; Defined at:
  3817 ;;		line 67 in file "main.c"
  3818 ;; Parameters:    Size  Location     Type
  3819 ;;		None
  3820 ;; Auto vars:     Size  Location     Type
  3821 ;;		None
  3822 ;; Return value:  Size  Location     Type
  3823 ;;                  1    wreg      void 
  3824 ;; Registers used:
  3825 ;;		wreg, status,2, status,0
  3826 ;; Tracked objects:
  3827 ;;		On entry : 0/0
  3828 ;;		On exit  : 0/0
  3829 ;;		Unchanged: 0/0
  3830 ;; Data sizes:     COMMON   BANK0   BANK1   BANK3   BANK2
  3831 ;;      Params:         0       0       0       0       0
  3832 ;;      Locals:         0       0       0       0       0
  3833 ;;      Temps:          0       0       0       0       0
  3834 ;;      Totals:         0       0       0       0       0
  3835 ;;Total ram usage:        0 bytes
  3836 ;; Hardware stack levels used: 1
  3837 ;; This function calls:
  3838 ;;		Nothing
  3839 ;; This function is called by:
  3840 ;;		_main
  3841 ;; This function uses a non-reentrant model
  3842 ;;
  3843                           
  3844     0CFF                     _adc_initialize:	
  3845                           ;psect for function _adc_initialize
  3846                           
  3847     0CFF                     l1819:	
  3848                           ;incstack = 0
  3849                           ; Regs used in _adc_initialize: [wreg+status,2+status,0]
  3850                           
  3851                           
  3852                           ;main.c: 69:      TRISA0 = 1;
  3853     0CFF  1683               	bsf	3,5	;RP0=1, select bank1
  3854     0D00  1303               	bcf	3,6	;RP1=0, select bank1
  3855     0D01  1405               	bsf	5,0	;volatile
  3856     0D02                     l1821:
  3857                           
  3858                           ;main.c: 71:      ANSEL = 0x00;
  3859     0D02  1683               	bsf	3,5	;RP0=1, select bank3
  3860     0D03  1703               	bsf	3,6	;RP1=1, select bank3
  3861     0D04  0188               	clrf	8	;volatile
  3862                           
  3863                           ;main.c: 72:      ANSELH = 0x00;
  3864     0D05  0189               	clrf	9	;volatile
  3865     0D06                     l1823:
  3866                           
  3867                           ;main.c: 74:      (ANSEL |= (1 << 0));
  3868     0D06  1408               	bsf	8,0	;volatile
  3869     0D07                     l1825:
  3870                           
  3871                           ;main.c: 78:      (ADCON0 &= ~(1 << 7));
  3872     0D07  307F               	movlw	127
  3873     0D08  1283               	bcf	3,5	;RP0=0, select bank0
  3874     0D09  1303               	bcf	3,6	;RP1=0, select bank0
  3875     0D0A  059F               	andwf	31,f	;volatile
  3876     0D0B                     l1827:
  3877                           
  3878                           ;main.c: 79:      (ADCON0 &= ~(1 << 6));
  3879     0D0B  30BF               	movlw	191
  3880     0D0C  059F               	andwf	31,f	;volatile
  3881     0D0D                     l1829:
  3882                           
  3883                           ;main.c: 81:      (ADCON1 &= ~(1 << 4));
  3884     0D0D  30EF               	movlw	239
  3885     0D0E  1683               	bsf	3,5	;RP0=1, select bank1
  3886     0D0F  1303               	bcf	3,6	;RP1=0, select bank1
  3887     0D10  059F               	andwf	31,f	;volatile
  3888     0D11                     l1831:
  3889                           
  3890                           ;main.c: 82:      (ADCON1 &= ~(1 << 5));
  3891     0D11  30DF               	movlw	223
  3892     0D12  059F               	andwf	31,f	;volatile
  3893     0D13                     l1833:
  3894                           
  3895                           ;main.c: 84:      (ADCON0 &= ~(1 << 5));
  3896     0D13  30DF               	movlw	223
  3897     0D14  1283               	bcf	3,5	;RP0=0, select bank0
  3898     0D15  1303               	bcf	3,6	;RP1=0, select bank0
  3899     0D16  059F               	andwf	31,f	;volatile
  3900     0D17                     l1835:
  3901                           
  3902                           ;main.c: 85:      (ADCON0 &= ~(1 << 4));
  3903     0D17  30EF               	movlw	239
  3904     0D18  059F               	andwf	31,f	;volatile
  3905     0D19                     l1837:
  3906                           
  3907                           ;main.c: 86:      (ADCON0 &= ~(1 << 3));
  3908     0D19  30F7               	movlw	247
  3909     0D1A  059F               	andwf	31,f	;volatile
  3910     0D1B                     l1839:
  3911                           
  3912                           ;main.c: 87:      (ADCON0 &= ~(1 << 2));
  3913     0D1B  30FB               	movlw	251
  3914     0D1C  059F               	andwf	31,f	;volatile
  3915     0D1D                     l1841:
  3916                           
  3917                           ;main.c: 89:      (ADCON1 |= (1 << 7));
  3918     0D1D  1683               	bsf	3,5	;RP0=1, select bank1
  3919     0D1E  1303               	bcf	3,6	;RP1=0, select bank1
  3920     0D1F  179F               	bsf	31,7	;volatile
  3921     0D20                     l1843:
  3922                           
  3923                           ;main.c: 91:      (ADCON0 |= (1 << 0));
  3924     0D20  1283               	bcf	3,5	;RP0=0, select bank0
  3925     0D21  1303               	bcf	3,6	;RP1=0, select bank0
  3926     0D22  141F               	bsf	31,0	;volatile
  3927     0D23                     l105:
  3928     0D23  0008               	return
  3929     0D24                     __end_of_adc_initialize:
  3930                           
  3931                           	psect	text25
  3932     04A9                     __ptext25:	
  3933 ;; *************** function ___flmul *****************
  3934 ;; Defined at:
  3935 ;;		line 8 in file "/Applications/microchip/xc8/v3.00/pic/sources/c99/common/sprcmul.c"
  3936 ;; Parameters:    Size  Location     Type
  3937 ;;  b               4    0[BANK0 ] void 
  3938 ;;  a               4    4[BANK0 ] void 
  3939 ;; Auto vars:     Size  Location     Type
  3940 ;;  prod            4   20[BANK0 ] struct .
  3941 ;;  grs             4   14[BANK0 ] unsigned long 
  3942 ;;  temp            2   24[BANK0 ] struct .
  3943 ;;  bexp            1   19[BANK0 ] unsigned char 
  3944 ;;  aexp            1   18[BANK0 ] unsigned char 
  3945 ;;  sign            1   13[BANK0 ] unsigned char 
  3946 ;; Return value:  Size  Location     Type
  3947 ;;                  4    0[BANK0 ] unsigned char 
  3948 ;; Registers used:
  3949 ;;		wreg, status,2, status,0, btemp+1, pclath, cstack
  3950 ;; Tracked objects:
  3951 ;;		On entry : 0/0
  3952 ;;		On exit  : 0/0
  3953 ;;		Unchanged: 0/0
  3954 ;; Data sizes:     COMMON   BANK0   BANK1   BANK3   BANK2
  3955 ;;      Params:         0       8       0       0       0
  3956 ;;      Locals:         0      13       0       0       0
  3957 ;;      Temps:          0       5       0       0       0
  3958 ;;      Totals:         0      26       0       0       0
  3959 ;;Total ram usage:       26 bytes
  3960 ;; Hardware stack levels used: 1
  3961 ;; Hardware stack levels required when called: 1
  3962 ;; This function calls:
  3963 ;;		__Umul8_16
  3964 ;; This function is called by:
  3965 ;;		_main
  3966 ;; This function uses a non-reentrant model
  3967 ;;
  3968                           
  3969     04A9                     ___flmul:	
  3970                           ;psect for function ___flmul
  3971                           
  3972     04A9                     l2065:	
  3973                           ;incstack = 0
  3974                           ; Regs used in ___flmul: [wreg+status,2+status,0+btemp+1+pclath+cstack]
  3975                           
  3976     04A9  1283               	bcf	3,5	;RP0=0, select bank0
  3977     04AA  1303               	bcf	3,6	;RP1=0, select bank0
  3978     04AB  0823               	movf	___flmul@b+3,w
  3979     04AC  00AD               	movwf	___flmul@sign
  3980     04AD                     l2067:
  3981     04AD  3080               	movlw	128
  3982     04AE  05AD               	andwf	___flmul@sign,f
  3983     04AF                     l2069:
  3984     04AF  0823               	movf	___flmul@b+3,w
  3985     04B0  00A8               	movwf	??___flmul
  3986     04B1  0728               	addwf	??___flmul,w
  3987     04B2  00B3               	movwf	___flmul@bexp
  3988     04B3                     l2071:
  3989     04B3  1FA2               	btfss	___flmul@b+2,7
  3990     04B4  2CB6               	goto	u2451
  3991     04B5  2CB7               	goto	u2450
  3992     04B6                     u2451:
  3993     04B6  2CB8               	goto	l2075
  3994     04B7                     u2450:
  3995     04B7                     l2073:
  3996     04B7  1433               	bsf	___flmul@bexp,0
  3997     04B8                     l2075:
  3998     04B8  0833               	movf	___flmul@bexp,w
  3999     04B9  1903               	btfsc	3,2
  4000     04BA  2CBC               	goto	u2461
  4001     04BB  2CBD               	goto	u2460
  4002     04BC                     u2461:
  4003     04BC  2CCC               	goto	l2083
  4004     04BD                     u2460:
  4005     04BD                     l2077:
  4006     04BD  0A33               	incf	___flmul@bexp,w
  4007     04BE  1D03               	btfss	3,2
  4008     04BF  2CC1               	goto	u2471
  4009     04C0  2CC2               	goto	u2470
  4010     04C1                     u2471:
  4011     04C1  2CCA               	goto	l2081
  4012     04C2                     u2470:
  4013     04C2                     l2079:
  4014     04C2  3000               	movlw	0
  4015     04C3  00A3               	movwf	___flmul@b+3
  4016     04C4  3000               	movlw	0
  4017     04C5  00A2               	movwf	___flmul@b+2
  4018     04C6  3000               	movlw	0
  4019     04C7  00A1               	movwf	___flmul@b+1
  4020     04C8  3000               	movlw	0
  4021     04C9  00A0               	movwf	___flmul@b
  4022     04CA                     l2081:
  4023     04CA  17A2               	bsf	___flmul@b+2,7
  4024     04CB  2CD4               	goto	l2085
  4025     04CC                     l2083:
  4026     04CC  3000               	movlw	0
  4027     04CD  00A3               	movwf	___flmul@b+3
  4028     04CE  3000               	movlw	0
  4029     04CF  00A2               	movwf	___flmul@b+2
  4030     04D0  3000               	movlw	0
  4031     04D1  00A1               	movwf	___flmul@b+1
  4032     04D2  3000               	movlw	0
  4033     04D3  00A0               	movwf	___flmul@b
  4034     04D4                     l2085:
  4035     04D4  0827               	movf	___flmul@a+3,w
  4036     04D5  3980               	andlw	128
  4037     04D6  06AD               	xorwf	___flmul@sign,f
  4038     04D7                     l2087:
  4039     04D7  0827               	movf	___flmul@a+3,w
  4040     04D8  00A8               	movwf	??___flmul
  4041     04D9  0728               	addwf	??___flmul,w
  4042     04DA  00B2               	movwf	___flmul@aexp
  4043     04DB                     l2089:
  4044     04DB  1FA6               	btfss	___flmul@a+2,7
  4045     04DC  2CDE               	goto	u2481
  4046     04DD  2CDF               	goto	u2480
  4047     04DE                     u2481:
  4048     04DE  2CE0               	goto	l2093
  4049     04DF                     u2480:
  4050     04DF                     l2091:
  4051     04DF  1432               	bsf	___flmul@aexp,0
  4052     04E0                     l2093:
  4053     04E0  0832               	movf	___flmul@aexp,w
  4054     04E1  1903               	btfsc	3,2
  4055     04E2  2CE4               	goto	u2491
  4056     04E3  2CE5               	goto	u2490
  4057     04E4                     u2491:
  4058     04E4  2CF4               	goto	l2101
  4059     04E5                     u2490:
  4060     04E5                     l2095:
  4061     04E5  0A32               	incf	___flmul@aexp,w
  4062     04E6  1D03               	btfss	3,2
  4063     04E7  2CE9               	goto	u2501
  4064     04E8  2CEA               	goto	u2500
  4065     04E9                     u2501:
  4066     04E9  2CF2               	goto	l2099
  4067     04EA                     u2500:
  4068     04EA                     l2097:
  4069     04EA  3000               	movlw	0
  4070     04EB  00A7               	movwf	___flmul@a+3
  4071     04EC  3000               	movlw	0
  4072     04ED  00A6               	movwf	___flmul@a+2
  4073     04EE  3000               	movlw	0
  4074     04EF  00A5               	movwf	___flmul@a+1
  4075     04F0  3000               	movlw	0
  4076     04F1  00A4               	movwf	___flmul@a
  4077     04F2                     l2099:
  4078     04F2  17A6               	bsf	___flmul@a+2,7
  4079     04F3  2CFC               	goto	l2103
  4080     04F4                     l2101:
  4081     04F4  3000               	movlw	0
  4082     04F5  00A7               	movwf	___flmul@a+3
  4083     04F6  3000               	movlw	0
  4084     04F7  00A6               	movwf	___flmul@a+2
  4085     04F8  3000               	movlw	0
  4086     04F9  00A5               	movwf	___flmul@a+1
  4087     04FA  3000               	movlw	0
  4088     04FB  00A4               	movwf	___flmul@a
  4089     04FC                     l2103:
  4090     04FC  0832               	movf	___flmul@aexp,w
  4091     04FD  1903               	btfsc	3,2
  4092     04FE  2D00               	goto	u2511
  4093     04FF  2D01               	goto	u2510
  4094     0500                     u2511:
  4095     0500  2D06               	goto	l2107
  4096     0501                     u2510:
  4097     0501                     l2105:
  4098     0501  0833               	movf	___flmul@bexp,w
  4099     0502  1D03               	btfss	3,2
  4100     0503  2D05               	goto	u2521
  4101     0504  2D06               	goto	u2520
  4102     0505                     u2521:
  4103     0505  2D0F               	goto	l2111
  4104     0506                     u2520:
  4105     0506                     l2107:
  4106     0506  3000               	movlw	0
  4107     0507  00A3               	movwf	?___flmul+3
  4108     0508  3000               	movlw	0
  4109     0509  00A2               	movwf	?___flmul+2
  4110     050A  3000               	movlw	0
  4111     050B  00A1               	movwf	?___flmul+1
  4112     050C  3000               	movlw	0
  4113     050D  00A0               	movwf	?___flmul
  4114     050E  2FEA               	goto	l655
  4115     050F                     l2111:
  4116     050F  0820               	movf	___flmul@b,w
  4117     0510  00F0               	movwf	__Umul8_16@multiplicand
  4118     0511  0826               	movf	___flmul@a+2,w
  4119     0512  120A  158A  2549  120A  118A  	fcall	__Umul8_16
  4120     0517  0871               	movf	?__Umul8_16+1,w
  4121     0518  1283               	bcf	3,5	;RP0=0, select bank0
  4122     0519  1303               	bcf	3,6	;RP1=0, select bank0
  4123     051A  00B9               	movwf	___flmul@temp+1
  4124     051B  0870               	movf	?__Umul8_16,w
  4125     051C  00B8               	movwf	___flmul@temp
  4126     051D                     l2113:
  4127     051D  0838               	movf	___flmul@temp,w
  4128     051E  00A8               	movwf	??___flmul
  4129     051F  01A9               	clrf	??___flmul+1
  4130     0520  01AA               	clrf	??___flmul+2
  4131     0521  01AB               	clrf	??___flmul+3
  4132     0522  082B               	movf	??___flmul+3,w
  4133     0523  00B1               	movwf	___flmul@grs+3
  4134     0524  082A               	movf	??___flmul+2,w
  4135     0525  00B0               	movwf	___flmul@grs+2
  4136     0526  0829               	movf	??___flmul+1,w
  4137     0527  00AF               	movwf	___flmul@grs+1
  4138     0528  0828               	movf	??___flmul,w
  4139     0529  00AE               	movwf	___flmul@grs
  4140     052A                     l2115:
  4141     052A  0839               	movf	___flmul@temp+1,w
  4142     052B  00A8               	movwf	??___flmul
  4143     052C  01A9               	clrf	??___flmul+1
  4144     052D  01AA               	clrf	??___flmul+2
  4145     052E  01AB               	clrf	??___flmul+3
  4146     052F  082B               	movf	??___flmul+3,w
  4147     0530  00B7               	movwf	___flmul@prod+3
  4148     0531  082A               	movf	??___flmul+2,w
  4149     0532  00B6               	movwf	___flmul@prod+2
  4150     0533  0829               	movf	??___flmul+1,w
  4151     0534  00B5               	movwf	___flmul@prod+1
  4152     0535  0828               	movf	??___flmul,w
  4153     0536  00B4               	movwf	___flmul@prod
  4154     0537  0821               	movf	___flmul@b+1,w
  4155     0538  00F0               	movwf	__Umul8_16@multiplicand
  4156     0539  0825               	movf	___flmul@a+1,w
  4157     053A  120A  158A  2549  120A  118A  	fcall	__Umul8_16
  4158     053F  0871               	movf	?__Umul8_16+1,w
  4159     0540  1283               	bcf	3,5	;RP0=0, select bank0
  4160     0541  1303               	bcf	3,6	;RP1=0, select bank0
  4161     0542  00B9               	movwf	___flmul@temp+1
  4162     0543  0870               	movf	?__Umul8_16,w
  4163     0544  00B8               	movwf	___flmul@temp
  4164     0545                     l2117:
  4165     0545  0838               	movf	___flmul@temp,w
  4166     0546  00A8               	movwf	??___flmul
  4167     0547  01A9               	clrf	??___flmul+1
  4168     0548  01AA               	clrf	??___flmul+2
  4169     0549  01AB               	clrf	??___flmul+3
  4170     054A  0828               	movf	??___flmul,w
  4171     054B  07AE               	addwf	___flmul@grs,f
  4172     054C  0829               	movf	??___flmul+1,w
  4173     054D  1103               	clrz
  4174     054E  1803               	skipnc
  4175     054F  3E01               	addlw	1
  4176     0550  1903               	skipnz
  4177     0551  2D53               	goto	u2531
  4178     0552  07AF               	addwf	___flmul@grs+1,f
  4179     0553                     u2531:
  4180     0553  082A               	movf	??___flmul+2,w
  4181     0554  1103               	clrz
  4182     0555  1803               	skipnc
  4183     0556  3E01               	addlw	1
  4184     0557  1903               	skipnz
  4185     0558  2D5A               	goto	u2532
  4186     0559  07B0               	addwf	___flmul@grs+2,f
  4187     055A                     u2532:
  4188     055A  082B               	movf	??___flmul+3,w
  4189     055B  1103               	clrz
  4190     055C  1803               	skipnc
  4191     055D  3E01               	addlw	1
  4192     055E  1903               	skipnz
  4193     055F  2D61               	goto	u2533
  4194     0560  07B1               	addwf	___flmul@grs+3,f
  4195     0561                     u2533:
  4196     0561                     l2119:
  4197     0561  0839               	movf	___flmul@temp+1,w
  4198     0562  00A8               	movwf	??___flmul
  4199     0563  01A9               	clrf	??___flmul+1
  4200     0564  01AA               	clrf	??___flmul+2
  4201     0565  01AB               	clrf	??___flmul+3
  4202     0566  0828               	movf	??___flmul,w
  4203     0567  07B4               	addwf	___flmul@prod,f
  4204     0568  0829               	movf	??___flmul+1,w
  4205     0569  1103               	clrz
  4206     056A  1803               	skipnc
  4207     056B  3E01               	addlw	1
  4208     056C  1903               	skipnz
  4209     056D  2D6F               	goto	u2541
  4210     056E  07B5               	addwf	___flmul@prod+1,f
  4211     056F                     u2541:
  4212     056F  082A               	movf	??___flmul+2,w
  4213     0570  1103               	clrz
  4214     0571  1803               	skipnc
  4215     0572  3E01               	addlw	1
  4216     0573  1903               	skipnz
  4217     0574  2D76               	goto	u2542
  4218     0575  07B6               	addwf	___flmul@prod+2,f
  4219     0576                     u2542:
  4220     0576  082B               	movf	??___flmul+3,w
  4221     0577  1103               	clrz
  4222     0578  1803               	skipnc
  4223     0579  3E01               	addlw	1
  4224     057A  1903               	skipnz
  4225     057B  2D7D               	goto	u2543
  4226     057C  07B7               	addwf	___flmul@prod+3,f
  4227     057D                     u2543:
  4228     057D  0822               	movf	___flmul@b+2,w
  4229     057E  00F0               	movwf	__Umul8_16@multiplicand
  4230     057F  0824               	movf	___flmul@a,w
  4231     0580  120A  158A  2549  120A  118A  	fcall	__Umul8_16
  4232     0585  0871               	movf	?__Umul8_16+1,w
  4233     0586  1283               	bcf	3,5	;RP0=0, select bank0
  4234     0587  1303               	bcf	3,6	;RP1=0, select bank0
  4235     0588  00B9               	movwf	___flmul@temp+1
  4236     0589  0870               	movf	?__Umul8_16,w
  4237     058A  00B8               	movwf	___flmul@temp
  4238     058B                     l2121:
  4239     058B  0838               	movf	___flmul@temp,w
  4240     058C  00A8               	movwf	??___flmul
  4241     058D  01A9               	clrf	??___flmul+1
  4242     058E  01AA               	clrf	??___flmul+2
  4243     058F  01AB               	clrf	??___flmul+3
  4244     0590  0828               	movf	??___flmul,w
  4245     0591  07AE               	addwf	___flmul@grs,f
  4246     0592  0829               	movf	??___flmul+1,w
  4247     0593  1103               	clrz
  4248     0594  1803               	skipnc
  4249     0595  3E01               	addlw	1
  4250     0596  1903               	skipnz
  4251     0597  2D99               	goto	u2551
  4252     0598  07AF               	addwf	___flmul@grs+1,f
  4253     0599                     u2551:
  4254     0599  082A               	movf	??___flmul+2,w
  4255     059A  1103               	clrz
  4256     059B  1803               	skipnc
  4257     059C  3E01               	addlw	1
  4258     059D  1903               	skipnz
  4259     059E  2DA0               	goto	u2552
  4260     059F  07B0               	addwf	___flmul@grs+2,f
  4261     05A0                     u2552:
  4262     05A0  082B               	movf	??___flmul+3,w
  4263     05A1  1103               	clrz
  4264     05A2  1803               	skipnc
  4265     05A3  3E01               	addlw	1
  4266     05A4  1903               	skipnz
  4267     05A5  2DA7               	goto	u2553
  4268     05A6  07B1               	addwf	___flmul@grs+3,f
  4269     05A7                     u2553:
  4270     05A7                     l2123:
  4271     05A7  0839               	movf	___flmul@temp+1,w
  4272     05A8  00A8               	movwf	??___flmul
  4273     05A9  01A9               	clrf	??___flmul+1
  4274     05AA  01AA               	clrf	??___flmul+2
  4275     05AB  01AB               	clrf	??___flmul+3
  4276     05AC  0828               	movf	??___flmul,w
  4277     05AD  07B4               	addwf	___flmul@prod,f
  4278     05AE  0829               	movf	??___flmul+1,w
  4279     05AF  1103               	clrz
  4280     05B0  1803               	skipnc
  4281     05B1  3E01               	addlw	1
  4282     05B2  1903               	skipnz
  4283     05B3  2DB5               	goto	u2561
  4284     05B4  07B5               	addwf	___flmul@prod+1,f
  4285     05B5                     u2561:
  4286     05B5  082A               	movf	??___flmul+2,w
  4287     05B6  1103               	clrz
  4288     05B7  1803               	skipnc
  4289     05B8  3E01               	addlw	1
  4290     05B9  1903               	skipnz
  4291     05BA  2DBC               	goto	u2562
  4292     05BB  07B6               	addwf	___flmul@prod+2,f
  4293     05BC                     u2562:
  4294     05BC  082B               	movf	??___flmul+3,w
  4295     05BD  1103               	clrz
  4296     05BE  1803               	skipnc
  4297     05BF  3E01               	addlw	1
  4298     05C0  1903               	skipnz
  4299     05C1  2DC3               	goto	u2563
  4300     05C2  07B7               	addwf	___flmul@prod+3,f
  4301     05C3                     u2563:
  4302     05C3                     l2125:
  4303     05C3  3008               	movlw	8
  4304     05C4  00A8               	movwf	??___flmul
  4305     05C5                     u2575:
  4306     05C5  1003               	clrc
  4307     05C6  0DAE               	rlf	___flmul@grs,f
  4308     05C7  0DAF               	rlf	___flmul@grs+1,f
  4309     05C8  0DB0               	rlf	___flmul@grs+2,f
  4310     05C9  0DB1               	rlf	___flmul@grs+3,f
  4311     05CA  0BA8               	decfsz	??___flmul,f
  4312     05CB  2DC5               	goto	u2575
  4313     05CC                     l2127:
  4314     05CC  0821               	movf	___flmul@b+1,w
  4315     05CD  00F0               	movwf	__Umul8_16@multiplicand
  4316     05CE  0824               	movf	___flmul@a,w
  4317     05CF  120A  158A  2549  120A  118A  	fcall	__Umul8_16
  4318     05D4  0871               	movf	?__Umul8_16+1,w
  4319     05D5  1283               	bcf	3,5	;RP0=0, select bank0
  4320     05D6  1303               	bcf	3,6	;RP1=0, select bank0
  4321     05D7  00B9               	movwf	___flmul@temp+1
  4322     05D8  0870               	movf	?__Umul8_16,w
  4323     05D9  00B8               	movwf	___flmul@temp
  4324     05DA                     l2129:
  4325     05DA  0838               	movf	___flmul@temp,w
  4326     05DB  00A8               	movwf	??___flmul
  4327     05DC  0839               	movf	___flmul@temp+1,w
  4328     05DD  00A9               	movwf	??___flmul+1
  4329     05DE  01AA               	clrf	??___flmul+2
  4330     05DF  01AB               	clrf	??___flmul+3
  4331     05E0  0828               	movf	??___flmul,w
  4332     05E1  07AE               	addwf	___flmul@grs,f
  4333     05E2  0829               	movf	??___flmul+1,w
  4334     05E3  1103               	clrz
  4335     05E4  1803               	skipnc
  4336     05E5  3E01               	addlw	1
  4337     05E6  1903               	skipnz
  4338     05E7  2DE9               	goto	u2581
  4339     05E8  07AF               	addwf	___flmul@grs+1,f
  4340     05E9                     u2581:
  4341     05E9  082A               	movf	??___flmul+2,w
  4342     05EA  1103               	clrz
  4343     05EB  1803               	skipnc
  4344     05EC  3E01               	addlw	1
  4345     05ED  1903               	skipnz
  4346     05EE  2DF0               	goto	u2582
  4347     05EF  07B0               	addwf	___flmul@grs+2,f
  4348     05F0                     u2582:
  4349     05F0  082B               	movf	??___flmul+3,w
  4350     05F1  1103               	clrz
  4351     05F2  1803               	skipnc
  4352     05F3  3E01               	addlw	1
  4353     05F4  1903               	skipnz
  4354     05F5  2DF7               	goto	u2583
  4355     05F6  07B1               	addwf	___flmul@grs+3,f
  4356     05F7                     u2583:
  4357     05F7                     l2131:
  4358     05F7  0820               	movf	___flmul@b,w
  4359     05F8  00F0               	movwf	__Umul8_16@multiplicand
  4360     05F9  0825               	movf	___flmul@a+1,w
  4361     05FA  120A  158A  2549  120A  118A  	fcall	__Umul8_16
  4362     05FF  0871               	movf	?__Umul8_16+1,w
  4363     0600  1283               	bcf	3,5	;RP0=0, select bank0
  4364     0601  1303               	bcf	3,6	;RP1=0, select bank0
  4365     0602  00B9               	movwf	___flmul@temp+1
  4366     0603  0870               	movf	?__Umul8_16,w
  4367     0604  00B8               	movwf	___flmul@temp
  4368     0605                     l2133:
  4369     0605  0838               	movf	___flmul@temp,w
  4370     0606  00A8               	movwf	??___flmul
  4371     0607  0839               	movf	___flmul@temp+1,w
  4372     0608  00A9               	movwf	??___flmul+1
  4373     0609  01AA               	clrf	??___flmul+2
  4374     060A  01AB               	clrf	??___flmul+3
  4375     060B  0828               	movf	??___flmul,w
  4376     060C  07AE               	addwf	___flmul@grs,f
  4377     060D  0829               	movf	??___flmul+1,w
  4378     060E  1103               	clrz
  4379     060F  1803               	skipnc
  4380     0610  3E01               	addlw	1
  4381     0611  1903               	skipnz
  4382     0612  2E14               	goto	u2591
  4383     0613  07AF               	addwf	___flmul@grs+1,f
  4384     0614                     u2591:
  4385     0614  082A               	movf	??___flmul+2,w
  4386     0615  1103               	clrz
  4387     0616  1803               	skipnc
  4388     0617  3E01               	addlw	1
  4389     0618  1903               	skipnz
  4390     0619  2E1B               	goto	u2592
  4391     061A  07B0               	addwf	___flmul@grs+2,f
  4392     061B                     u2592:
  4393     061B  082B               	movf	??___flmul+3,w
  4394     061C  1103               	clrz
  4395     061D  1803               	skipnc
  4396     061E  3E01               	addlw	1
  4397     061F  1903               	skipnz
  4398     0620  2E22               	goto	u2593
  4399     0621  07B1               	addwf	___flmul@grs+3,f
  4400     0622                     u2593:
  4401     0622                     l2135:
  4402     0622  3008               	movlw	8
  4403     0623  00A8               	movwf	??___flmul
  4404     0624                     u2605:
  4405     0624  1003               	clrc
  4406     0625  0DAE               	rlf	___flmul@grs,f
  4407     0626  0DAF               	rlf	___flmul@grs+1,f
  4408     0627  0DB0               	rlf	___flmul@grs+2,f
  4409     0628  0DB1               	rlf	___flmul@grs+3,f
  4410     0629  0BA8               	decfsz	??___flmul,f
  4411     062A  2E24               	goto	u2605
  4412     062B  0820               	movf	___flmul@b,w
  4413     062C  00F0               	movwf	__Umul8_16@multiplicand
  4414     062D  0824               	movf	___flmul@a,w
  4415     062E  120A  158A  2549  120A  118A  	fcall	__Umul8_16
  4416     0633  0871               	movf	?__Umul8_16+1,w
  4417     0634  1283               	bcf	3,5	;RP0=0, select bank0
  4418     0635  1303               	bcf	3,6	;RP1=0, select bank0
  4419     0636  00B9               	movwf	___flmul@temp+1
  4420     0637  0870               	movf	?__Umul8_16,w
  4421     0638  00B8               	movwf	___flmul@temp
  4422     0639                     l2137:
  4423     0639  0838               	movf	___flmul@temp,w
  4424     063A  00A8               	movwf	??___flmul
  4425     063B  0839               	movf	___flmul@temp+1,w
  4426     063C  00A9               	movwf	??___flmul+1
  4427     063D  01AA               	clrf	??___flmul+2
  4428     063E  01AB               	clrf	??___flmul+3
  4429     063F  0828               	movf	??___flmul,w
  4430     0640  07AE               	addwf	___flmul@grs,f
  4431     0641  0829               	movf	??___flmul+1,w
  4432     0642  1103               	clrz
  4433     0643  1803               	skipnc
  4434     0644  3E01               	addlw	1
  4435     0645  1903               	skipnz
  4436     0646  2E48               	goto	u2611
  4437     0647  07AF               	addwf	___flmul@grs+1,f
  4438     0648                     u2611:
  4439     0648  082A               	movf	??___flmul+2,w
  4440     0649  1103               	clrz
  4441     064A  1803               	skipnc
  4442     064B  3E01               	addlw	1
  4443     064C  1903               	skipnz
  4444     064D  2E4F               	goto	u2612
  4445     064E  07B0               	addwf	___flmul@grs+2,f
  4446     064F                     u2612:
  4447     064F  082B               	movf	??___flmul+3,w
  4448     0650  1103               	clrz
  4449     0651  1803               	skipnc
  4450     0652  3E01               	addlw	1
  4451     0653  1903               	skipnz
  4452     0654  2E56               	goto	u2613
  4453     0655  07B1               	addwf	___flmul@grs+3,f
  4454     0656                     u2613:
  4455     0656                     l2139:
  4456     0656  0821               	movf	___flmul@b+1,w
  4457     0657  00F0               	movwf	__Umul8_16@multiplicand
  4458     0658  0826               	movf	___flmul@a+2,w
  4459     0659  120A  158A  2549  120A  118A  	fcall	__Umul8_16
  4460     065E  0871               	movf	?__Umul8_16+1,w
  4461     065F  1283               	bcf	3,5	;RP0=0, select bank0
  4462     0660  1303               	bcf	3,6	;RP1=0, select bank0
  4463     0661  00B9               	movwf	___flmul@temp+1
  4464     0662  0870               	movf	?__Umul8_16,w
  4465     0663  00B8               	movwf	___flmul@temp
  4466     0664  0838               	movf	___flmul@temp,w
  4467     0665  00A8               	movwf	??___flmul
  4468     0666  0839               	movf	___flmul@temp+1,w
  4469     0667  00A9               	movwf	??___flmul+1
  4470     0668  01AA               	clrf	??___flmul+2
  4471     0669  01AB               	clrf	??___flmul+3
  4472     066A  0828               	movf	??___flmul,w
  4473     066B  07B4               	addwf	___flmul@prod,f
  4474     066C  0829               	movf	??___flmul+1,w
  4475     066D  1103               	clrz
  4476     066E  1803               	skipnc
  4477     066F  3E01               	addlw	1
  4478     0670  1903               	skipnz
  4479     0671  2E73               	goto	u2621
  4480     0672  07B5               	addwf	___flmul@prod+1,f
  4481     0673                     u2621:
  4482     0673  082A               	movf	??___flmul+2,w
  4483     0674  1103               	clrz
  4484     0675  1803               	skipnc
  4485     0676  3E01               	addlw	1
  4486     0677  1903               	skipnz
  4487     0678  2E7A               	goto	u2622
  4488     0679  07B6               	addwf	___flmul@prod+2,f
  4489     067A                     u2622:
  4490     067A  082B               	movf	??___flmul+3,w
  4491     067B  1103               	clrz
  4492     067C  1803               	skipnc
  4493     067D  3E01               	addlw	1
  4494     067E  1903               	skipnz
  4495     067F  2E81               	goto	u2623
  4496     0680  07B7               	addwf	___flmul@prod+3,f
  4497     0681                     u2623:
  4498     0681                     l2141:
  4499     0681  0822               	movf	___flmul@b+2,w
  4500     0682  00F0               	movwf	__Umul8_16@multiplicand
  4501     0683  0825               	movf	___flmul@a+1,w
  4502     0684  120A  158A  2549  120A  118A  	fcall	__Umul8_16
  4503     0689  0871               	movf	?__Umul8_16+1,w
  4504     068A  1283               	bcf	3,5	;RP0=0, select bank0
  4505     068B  1303               	bcf	3,6	;RP1=0, select bank0
  4506     068C  00B9               	movwf	___flmul@temp+1
  4507     068D  0870               	movf	?__Umul8_16,w
  4508     068E  00B8               	movwf	___flmul@temp
  4509     068F                     l2143:
  4510     068F  0838               	movf	___flmul@temp,w
  4511     0690  00A8               	movwf	??___flmul
  4512     0691  0839               	movf	___flmul@temp+1,w
  4513     0692  00A9               	movwf	??___flmul+1
  4514     0693  01AA               	clrf	??___flmul+2
  4515     0694  01AB               	clrf	??___flmul+3
  4516     0695  0828               	movf	??___flmul,w
  4517     0696  07B4               	addwf	___flmul@prod,f
  4518     0697  0829               	movf	??___flmul+1,w
  4519     0698  1103               	clrz
  4520     0699  1803               	skipnc
  4521     069A  3E01               	addlw	1
  4522     069B  1903               	skipnz
  4523     069C  2E9E               	goto	u2631
  4524     069D  07B5               	addwf	___flmul@prod+1,f
  4525     069E                     u2631:
  4526     069E  082A               	movf	??___flmul+2,w
  4527     069F  1103               	clrz
  4528     06A0  1803               	skipnc
  4529     06A1  3E01               	addlw	1
  4530     06A2  1903               	skipnz
  4531     06A3  2EA5               	goto	u2632
  4532     06A4  07B6               	addwf	___flmul@prod+2,f
  4533     06A5                     u2632:
  4534     06A5  082B               	movf	??___flmul+3,w
  4535     06A6  1103               	clrz
  4536     06A7  1803               	skipnc
  4537     06A8  3E01               	addlw	1
  4538     06A9  1903               	skipnz
  4539     06AA  2EAC               	goto	u2633
  4540     06AB  07B7               	addwf	___flmul@prod+3,f
  4541     06AC                     u2633:
  4542     06AC  0822               	movf	___flmul@b+2,w
  4543     06AD  00F0               	movwf	__Umul8_16@multiplicand
  4544     06AE  0826               	movf	___flmul@a+2,w
  4545     06AF  120A  158A  2549  120A  118A  	fcall	__Umul8_16
  4546     06B4  0871               	movf	?__Umul8_16+1,w
  4547     06B5  1283               	bcf	3,5	;RP0=0, select bank0
  4548     06B6  1303               	bcf	3,6	;RP1=0, select bank0
  4549     06B7  00B9               	movwf	___flmul@temp+1
  4550     06B8  0870               	movf	?__Umul8_16,w
  4551     06B9  00B8               	movwf	___flmul@temp
  4552     06BA                     l2145:
  4553     06BA  0838               	movf	___flmul@temp,w
  4554     06BB  00A8               	movwf	??___flmul
  4555     06BC  0839               	movf	___flmul@temp+1,w
  4556     06BD  00A9               	movwf	??___flmul+1
  4557     06BE  01AA               	clrf	??___flmul+2
  4558     06BF  01AB               	clrf	??___flmul+3
  4559     06C0  3008               	movlw	8
  4560     06C1                     u2645:
  4561     06C1  1003               	clrc
  4562     06C2  0DA8               	rlf	??___flmul,f
  4563     06C3  0DA9               	rlf	??___flmul+1,f
  4564     06C4  0DAA               	rlf	??___flmul+2,f
  4565     06C5  0DAB               	rlf	??___flmul+3,f
  4566     06C6                     u2640:
  4567     06C6  3EFF               	addlw	-1
  4568     06C7  1D03               	skipz
  4569     06C8  2EC1               	goto	u2645
  4570     06C9  0828               	movf	??___flmul,w
  4571     06CA  07B4               	addwf	___flmul@prod,f
  4572     06CB  0829               	movf	??___flmul+1,w
  4573     06CC  1103               	clrz
  4574     06CD  1803               	skipnc
  4575     06CE  3E01               	addlw	1
  4576     06CF  1903               	skipnz
  4577     06D0  2ED2               	goto	u2651
  4578     06D1  07B5               	addwf	___flmul@prod+1,f
  4579     06D2                     u2651:
  4580     06D2  082A               	movf	??___flmul+2,w
  4581     06D3  1103               	clrz
  4582     06D4  1803               	skipnc
  4583     06D5  3E01               	addlw	1
  4584     06D6  1903               	skipnz
  4585     06D7  2ED9               	goto	u2652
  4586     06D8  07B6               	addwf	___flmul@prod+2,f
  4587     06D9                     u2652:
  4588     06D9  082B               	movf	??___flmul+3,w
  4589     06DA  1103               	clrz
  4590     06DB  1803               	skipnc
  4591     06DC  3E01               	addlw	1
  4592     06DD  1903               	skipnz
  4593     06DE  2EE0               	goto	u2653
  4594     06DF  07B7               	addwf	___flmul@prod+3,f
  4595     06E0                     u2653:
  4596     06E0                     l2147:
  4597     06E0  082E               	movf	___flmul@grs,w
  4598     06E1  00A8               	movwf	??___flmul
  4599     06E2  082F               	movf	___flmul@grs+1,w
  4600     06E3  00A9               	movwf	??___flmul+1
  4601     06E4  0830               	movf	___flmul@grs+2,w
  4602     06E5  00AA               	movwf	??___flmul+2
  4603     06E6  0831               	movf	___flmul@grs+3,w
  4604     06E7  00AB               	movwf	??___flmul+3
  4605     06E8  3018               	movlw	24
  4606     06E9                     u2665:
  4607     06E9  1003               	clrc
  4608     06EA  0CAB               	rrf	??___flmul+3,f
  4609     06EB  0CAA               	rrf	??___flmul+2,f
  4610     06EC  0CA9               	rrf	??___flmul+1,f
  4611     06ED  0CA8               	rrf	??___flmul,f
  4612     06EE                     u2660:
  4613     06EE  3EFF               	addlw	-1
  4614     06EF  1D03               	skipz
  4615     06F0  2EE9               	goto	u2665
  4616     06F1  0828               	movf	??___flmul,w
  4617     06F2  07B4               	addwf	___flmul@prod,f
  4618     06F3  0829               	movf	??___flmul+1,w
  4619     06F4  1103               	clrz
  4620     06F5  1803               	skipnc
  4621     06F6  3E01               	addlw	1
  4622     06F7  1903               	skipnz
  4623     06F8  2EFA               	goto	u2671
  4624     06F9  07B5               	addwf	___flmul@prod+1,f
  4625     06FA                     u2671:
  4626     06FA  082A               	movf	??___flmul+2,w
  4627     06FB  1103               	clrz
  4628     06FC  1803               	skipnc
  4629     06FD  3E01               	addlw	1
  4630     06FE  1903               	skipnz
  4631     06FF  2F01               	goto	u2672
  4632     0700  07B6               	addwf	___flmul@prod+2,f
  4633     0701                     u2672:
  4634     0701  082B               	movf	??___flmul+3,w
  4635     0702  1103               	clrz
  4636     0703  1803               	skipnc
  4637     0704  3E01               	addlw	1
  4638     0705  1903               	skipnz
  4639     0706  2F08               	goto	u2673
  4640     0707  07B7               	addwf	___flmul@prod+3,f
  4641     0708                     u2673:
  4642     0708                     l2149:
  4643     0708  3008               	movlw	8
  4644     0709  00A8               	movwf	??___flmul
  4645     070A                     u2685:
  4646     070A  1003               	clrc
  4647     070B  0DAE               	rlf	___flmul@grs,f
  4648     070C  0DAF               	rlf	___flmul@grs+1,f
  4649     070D  0DB0               	rlf	___flmul@grs+2,f
  4650     070E  0DB1               	rlf	___flmul@grs+3,f
  4651     070F  0BA8               	decfsz	??___flmul,f
  4652     0710  2F0A               	goto	u2685
  4653     0711                     l2151:
  4654     0711  0833               	movf	___flmul@bexp,w
  4655     0712  0732               	addwf	___flmul@aexp,w
  4656     0713  00A8               	movwf	??___flmul
  4657     0714  01A9               	clrf	??___flmul+1
  4658     0715  0DA9               	rlf	??___flmul+1,f
  4659     0716  0828               	movf	??___flmul,w
  4660     0717  3E82               	addlw	130
  4661     0718  00B8               	movwf	___flmul@temp
  4662     0719  0829               	movf	??___flmul+1,w
  4663     071A  1803               	skipnc
  4664     071B  3E01               	addlw	1
  4665     071C  3EFF               	addlw	255
  4666     071D  00B9               	movwf	___flmul@temp+1
  4667     071E  2F3C               	goto	l2163
  4668     071F                     l2153:
  4669     071F  3001               	movlw	1
  4670     0720  00A8               	movwf	??___flmul
  4671     0721                     u2695:
  4672     0721  1003               	clrc
  4673     0722  0DB4               	rlf	___flmul@prod,f
  4674     0723  0DB5               	rlf	___flmul@prod+1,f
  4675     0724  0DB6               	rlf	___flmul@prod+2,f
  4676     0725  0DB7               	rlf	___flmul@prod+3,f
  4677     0726  0BA8               	decfsz	??___flmul,f
  4678     0727  2F21               	goto	u2695
  4679     0728                     l2155:
  4680     0728  1FB1               	btfss	___flmul@grs+3,7
  4681     0729  2F2B               	goto	u2701
  4682     072A  2F2C               	goto	u2700
  4683     072B                     u2701:
  4684     072B  2F2D               	goto	l2159
  4685     072C                     u2700:
  4686     072C                     l2157:
  4687     072C  1434               	bsf	___flmul@prod,0
  4688     072D                     l2159:
  4689     072D  3001               	movlw	1
  4690     072E  00A8               	movwf	??___flmul
  4691     072F                     u2715:
  4692     072F  1003               	clrc
  4693     0730  0DAE               	rlf	___flmul@grs,f
  4694     0731  0DAF               	rlf	___flmul@grs+1,f
  4695     0732  0DB0               	rlf	___flmul@grs+2,f
  4696     0733  0DB1               	rlf	___flmul@grs+3,f
  4697     0734  0BA8               	decfsz	??___flmul,f
  4698     0735  2F2F               	goto	u2715
  4699     0736                     l2161:
  4700     0736  30FF               	movlw	255
  4701     0737  07B8               	addwf	___flmul@temp,f
  4702     0738  1803               	skipnc
  4703     0739  0AB9               	incf	___flmul@temp+1,f
  4704     073A  30FF               	movlw	255
  4705     073B  07B9               	addwf	___flmul@temp+1,f
  4706     073C                     l2163:
  4707     073C  1FB6               	btfss	___flmul@prod+2,7
  4708     073D  2F3F               	goto	u2721
  4709     073E  2F40               	goto	u2720
  4710     073F                     u2721:
  4711     073F  2F1F               	goto	l2153
  4712     0740                     u2720:
  4713     0740                     l2165:
  4714     0740  01B2               	clrf	___flmul@aexp
  4715     0741                     l2167:
  4716     0741  1FB1               	btfss	___flmul@grs+3,7
  4717     0742  2F44               	goto	u2731
  4718     0743  2F45               	goto	u2730
  4719     0744                     u2731:
  4720     0744  2F61               	goto	l2175
  4721     0745                     u2730:
  4722     0745                     l2169:
  4723     0745  30FF               	movlw	255
  4724     0746  052E               	andwf	___flmul@grs,w
  4725     0747  00A8               	movwf	??___flmul
  4726     0748  30FF               	movlw	255
  4727     0749  052F               	andwf	___flmul@grs+1,w
  4728     074A  00A9               	movwf	??___flmul+1
  4729     074B  30FF               	movlw	255
  4730     074C  0530               	andwf	___flmul@grs+2,w
  4731     074D  00AA               	movwf	??___flmul+2
  4732     074E  307F               	movlw	127
  4733     074F  0531               	andwf	___flmul@grs+3,w
  4734     0750  00AB               	movwf	??___flmul+3
  4735     0751  082B               	movf	??___flmul+3,w
  4736     0752  042A               	iorwf	??___flmul+2,w
  4737     0753  0429               	iorwf	??___flmul+1,w
  4738     0754  0428               	iorwf	??___flmul,w
  4739     0755  1903               	skipnz
  4740     0756  2F58               	goto	u2741
  4741     0757  2F59               	goto	u2740
  4742     0758                     u2741:
  4743     0758  2F5C               	goto	l661
  4744     0759                     u2740:
  4745     0759                     l2171:
  4746     0759  3001               	movlw	1
  4747     075A  00B2               	movwf	___flmul@aexp
  4748     075B  2F61               	goto	l2175
  4749     075C                     l661:
  4750     075C  1C34               	btfss	___flmul@prod,0
  4751     075D  2F5F               	goto	u2751
  4752     075E  2F60               	goto	u2750
  4753     075F                     u2751:
  4754     075F  2F61               	goto	l2175
  4755     0760                     u2750:
  4756     0760  2F59               	goto	l2171
  4757     0761                     l2175:
  4758     0761  0832               	movf	___flmul@aexp,w
  4759     0762  1903               	btfsc	3,2
  4760     0763  2F65               	goto	u2761
  4761     0764  2F66               	goto	u2760
  4762     0765                     u2761:
  4763     0765  2F97               	goto	l2185
  4764     0766                     u2760:
  4765     0766                     l2177:
  4766     0766  3001               	movlw	1
  4767     0767  07B4               	addwf	___flmul@prod,f
  4768     0768  3000               	movlw	0
  4769     0769  1803               	skipnc
  4770     076A  3001               	movlw	1
  4771     076B  07B5               	addwf	___flmul@prod+1,f
  4772     076C  3000               	movlw	0
  4773     076D  1803               	skipnc
  4774     076E  3001               	movlw	1
  4775     076F  07B6               	addwf	___flmul@prod+2,f
  4776     0770  3000               	movlw	0
  4777     0771  1803               	skipnc
  4778     0772  3001               	movlw	1
  4779     0773  07B7               	addwf	___flmul@prod+3,f
  4780     0774                     l2179:
  4781     0774  1C37               	btfss	___flmul@prod+3,0
  4782     0775  2F77               	goto	u2771
  4783     0776  2F78               	goto	u2770
  4784     0777                     u2771:
  4785     0777  2F97               	goto	l2185
  4786     0778                     u2770:
  4787     0778                     l2181:
  4788     0778  0834               	movf	___flmul@prod,w
  4789     0779  00A8               	movwf	??___flmul
  4790     077A  0835               	movf	___flmul@prod+1,w
  4791     077B  00A9               	movwf	??___flmul+1
  4792     077C  0836               	movf	___flmul@prod+2,w
  4793     077D  00AA               	movwf	??___flmul+2
  4794     077E  0837               	movf	___flmul@prod+3,w
  4795     077F  00AB               	movwf	??___flmul+3
  4796     0780  3001               	movlw	1
  4797     0781  00AC               	movwf	??___flmul+4
  4798     0782                     u2785:
  4799     0782  0D2B               	rlf	??___flmul+3,w
  4800     0783  0CAB               	rrf	??___flmul+3,f
  4801     0784  0CAA               	rrf	??___flmul+2,f
  4802     0785  0CA9               	rrf	??___flmul+1,f
  4803     0786  0CA8               	rrf	??___flmul,f
  4804     0787                     u2780:
  4805     0787  0BAC               	decfsz	??___flmul+4,f
  4806     0788  2F82               	goto	u2785
  4807     0789  082B               	movf	??___flmul+3,w
  4808     078A  00B7               	movwf	___flmul@prod+3
  4809     078B  082A               	movf	??___flmul+2,w
  4810     078C  00B6               	movwf	___flmul@prod+2
  4811     078D  0829               	movf	??___flmul+1,w
  4812     078E  00B5               	movwf	___flmul@prod+1
  4813     078F  0828               	movf	??___flmul,w
  4814     0790  00B4               	movwf	___flmul@prod
  4815     0791                     l2183:
  4816     0791  3001               	movlw	1
  4817     0792  07B8               	addwf	___flmul@temp,f
  4818     0793  1803               	skipnc
  4819     0794  0AB9               	incf	___flmul@temp+1,f
  4820     0795  3000               	movlw	0
  4821     0796  07B9               	addwf	___flmul@temp+1,f
  4822     0797                     l2185:
  4823     0797  0839               	movf	___flmul@temp+1,w
  4824     0798  3A80               	xorlw	128
  4825     0799  00FF               	movwf	btemp+1
  4826     079A  3080               	movlw	128
  4827     079B  027F               	subwf	btemp+1,w
  4828     079C  1D03               	skipz
  4829     079D  2FA0               	goto	u2795
  4830     079E  30FF               	movlw	255
  4831     079F  0238               	subwf	___flmul@temp,w
  4832     07A0                     u2795:
  4833     07A0  1C03               	skipc
  4834     07A1  2FA3               	goto	u2791
  4835     07A2  2FA4               	goto	u2790
  4836     07A3                     u2791:
  4837     07A3  2FAF               	goto	l2189
  4838     07A4                     u2790:
  4839     07A4                     l2187:
  4840     07A4  307F               	movlw	127
  4841     07A5  1283               	bcf	3,5	;RP0=0, select bank0
  4842     07A6  1303               	bcf	3,6	;RP1=0, select bank0
  4843     07A7  00B7               	movwf	___flmul@prod+3
  4844     07A8  3080               	movlw	128
  4845     07A9  00B6               	movwf	___flmul@prod+2
  4846     07AA  3000               	movlw	0
  4847     07AB  00B5               	movwf	___flmul@prod+1
  4848     07AC  3000               	movlw	0
  4849     07AD  00B4               	movwf	___flmul@prod
  4850     07AE  2FE0               	goto	l667
  4851     07AF                     l2189:
  4852     07AF  1283               	bcf	3,5	;RP0=0, select bank0
  4853     07B0  1303               	bcf	3,6	;RP1=0, select bank0
  4854     07B1  0839               	movf	___flmul@temp+1,w
  4855     07B2  3A80               	xorlw	128
  4856     07B3  00FF               	movwf	btemp+1
  4857     07B4  3080               	movlw	128
  4858     07B5  027F               	subwf	btemp+1,w
  4859     07B6  1D03               	skipz
  4860     07B7  2FBA               	goto	u2805
  4861     07B8  3001               	movlw	1
  4862     07B9  0238               	subwf	___flmul@temp,w
  4863     07BA                     u2805:
  4864     07BA  1803               	skipnc
  4865     07BB  2FBD               	goto	u2801
  4866     07BC  2FBE               	goto	u2800
  4867     07BD                     u2801:
  4868     07BD  2FCA               	goto	l2195
  4869     07BE                     u2800:
  4870     07BE                     l2191:
  4871     07BE  3000               	movlw	0
  4872     07BF  1283               	bcf	3,5	;RP0=0, select bank0
  4873     07C0  1303               	bcf	3,6	;RP1=0, select bank0
  4874     07C1  00B7               	movwf	___flmul@prod+3
  4875     07C2  3000               	movlw	0
  4876     07C3  00B6               	movwf	___flmul@prod+2
  4877     07C4  3000               	movlw	0
  4878     07C5  00B5               	movwf	___flmul@prod+1
  4879     07C6  3000               	movlw	0
  4880     07C7  00B4               	movwf	___flmul@prod
  4881     07C8                     l2193:
  4882     07C8  01AD               	clrf	___flmul@sign
  4883     07C9  2FE0               	goto	l667
  4884     07CA                     l2195:
  4885     07CA  1283               	bcf	3,5	;RP0=0, select bank0
  4886     07CB  1303               	bcf	3,6	;RP1=0, select bank0
  4887     07CC  0838               	movf	___flmul@temp,w
  4888     07CD  00B3               	movwf	___flmul@bexp
  4889     07CE  30FF               	movlw	255
  4890     07CF  05B4               	andwf	___flmul@prod,f
  4891     07D0  30FF               	movlw	255
  4892     07D1  05B5               	andwf	___flmul@prod+1,f
  4893     07D2  307F               	movlw	127
  4894     07D3  05B6               	andwf	___flmul@prod+2,f
  4895     07D4  3000               	movlw	0
  4896     07D5  05B7               	andwf	___flmul@prod+3,f
  4897     07D6                     l2197:
  4898     07D6  1C33               	btfss	___flmul@bexp,0
  4899     07D7  2FD9               	goto	u2811
  4900     07D8  2FDA               	goto	u2810
  4901     07D9                     u2811:
  4902     07D9  2FDB               	goto	l2201
  4903     07DA                     u2810:
  4904     07DA                     l2199:
  4905     07DA  17B6               	bsf	___flmul@prod+2,7
  4906     07DB                     l2201:
  4907     07DB  0833               	movf	___flmul@bexp,w
  4908     07DC  00A8               	movwf	??___flmul
  4909     07DD  1003               	clrc
  4910     07DE  0C28               	rrf	??___flmul,w
  4911     07DF  00B7               	movwf	___flmul@prod+3
  4912     07E0                     l667:
  4913     07E0  082D               	movf	___flmul@sign,w
  4914     07E1  04B7               	iorwf	___flmul@prod+3,f
  4915     07E2                     l2203:
  4916     07E2  0837               	movf	___flmul@prod+3,w
  4917     07E3  00A3               	movwf	?___flmul+3
  4918     07E4  0836               	movf	___flmul@prod+2,w
  4919     07E5  00A2               	movwf	?___flmul+2
  4920     07E6  0835               	movf	___flmul@prod+1,w
  4921     07E7  00A1               	movwf	?___flmul+1
  4922     07E8  0834               	movf	___flmul@prod,w
  4923     07E9  00A0               	movwf	?___flmul
  4924     07EA                     l655:
  4925     07EA  0008               	return
  4926     07EB                     __end_of___flmul:
  4927                           
  4928                           	psect	text26
  4929     0D49                     __ptext26:	
  4930 ;; *************** function __Umul8_16 *****************
  4931 ;; Defined at:
  4932 ;;		line 4 in file "/Applications/microchip/xc8/v3.00/pic/sources/c99/common/Umul8_16.c"
  4933 ;; Parameters:    Size  Location     Type
  4934 ;;  multiplier      1    wreg     unsigned char 
  4935 ;;  multiplicand    1    0[COMMON] unsigned char 
  4936 ;; Auto vars:     Size  Location     Type
  4937 ;;  multiplier      1    8[COMMON] unsigned char 
  4938 ;;  word_mpld       2    6[COMMON] unsigned short 
  4939 ;;  product         2    4[COMMON] unsigned short 
  4940 ;; Return value:  Size  Location     Type
  4941 ;;                  2    0[COMMON] unsigned int 
  4942 ;; Registers used:
  4943 ;;		wreg, status,2, status,0
  4944 ;; Tracked objects:
  4945 ;;		On entry : 0/0
  4946 ;;		On exit  : 0/0
  4947 ;;		Unchanged: 0/0
  4948 ;; Data sizes:     COMMON   BANK0   BANK1   BANK3   BANK2
  4949 ;;      Params:         2       0       0       0       0
  4950 ;;      Locals:         5       0       0       0       0
  4951 ;;      Temps:          2       0       0       0       0
  4952 ;;      Totals:         9       0       0       0       0
  4953 ;;Total ram usage:        9 bytes
  4954 ;; Hardware stack levels used: 1
  4955 ;; This function calls:
  4956 ;;		Nothing
  4957 ;; This function is called by:
  4958 ;;		___flmul
  4959 ;; This function uses a non-reentrant model
  4960 ;;
  4961                           
  4962     0D49                     __Umul8_16:	
  4963                           ;psect for function __Umul8_16
  4964                           
  4965                           
  4966                           ;incstack = 0
  4967                           ; Regs used in __Umul8_16: [wreg+status,2+status,0]
  4968                           ;__Umul8_16@multiplier stored from wreg
  4969     0D49  00F8               	movwf	__Umul8_16@multiplier
  4970     0D4A                     l1763:
  4971     0D4A  01F4               	clrf	__Umul8_16@product
  4972     0D4B  01F5               	clrf	__Umul8_16@product+1
  4973     0D4C                     l1765:
  4974     0D4C  0870               	movf	__Umul8_16@multiplicand,w
  4975     0D4D  00F2               	movwf	??__Umul8_16
  4976     0D4E  01F3               	clrf	??__Umul8_16+1
  4977     0D4F  0872               	movf	??__Umul8_16,w
  4978     0D50  00F6               	movwf	__Umul8_16@word_mpld
  4979     0D51  0873               	movf	??__Umul8_16+1,w
  4980     0D52  00F7               	movwf	__Umul8_16@word_mpld+1
  4981     0D53                     l1767:
  4982     0D53  1C78               	btfss	__Umul8_16@multiplier,0
  4983     0D54  2D56               	goto	u1931
  4984     0D55  2D57               	goto	u1930
  4985     0D56                     u1931:
  4986     0D56  2D5D               	goto	l674
  4987     0D57                     u1930:
  4988     0D57                     l1769:
  4989     0D57  0876               	movf	__Umul8_16@word_mpld,w
  4990     0D58  07F4               	addwf	__Umul8_16@product,f
  4991     0D59  1803               	skipnc
  4992     0D5A  0AF5               	incf	__Umul8_16@product+1,f
  4993     0D5B  0877               	movf	__Umul8_16@word_mpld+1,w
  4994     0D5C  07F5               	addwf	__Umul8_16@product+1,f
  4995     0D5D                     l674:
  4996     0D5D  3001               	movlw	1
  4997     0D5E                     u1945:
  4998     0D5E  1003               	clrc
  4999     0D5F  0DF6               	rlf	__Umul8_16@word_mpld,f
  5000     0D60  0DF7               	rlf	__Umul8_16@word_mpld+1,f
  5001     0D61  3EFF               	addlw	-1
  5002     0D62  1D03               	skipz
  5003     0D63  2D5E               	goto	u1945
  5004     0D64  1003               	clrc
  5005     0D65  0CF8               	rrf	__Umul8_16@multiplier,f
  5006     0D66                     l1771:
  5007     0D66  0878               	movf	__Umul8_16@multiplier,w
  5008     0D67  1D03               	btfss	3,2
  5009     0D68  2D6A               	goto	u1951
  5010     0D69  2D6B               	goto	u1950
  5011     0D6A                     u1951:
  5012     0D6A  2D53               	goto	l1767
  5013     0D6B                     u1950:
  5014     0D6B                     l1773:
  5015     0D6B  0875               	movf	__Umul8_16@product+1,w
  5016     0D6C  00F1               	movwf	?__Umul8_16+1
  5017     0D6D  0874               	movf	__Umul8_16@product,w
  5018     0D6E  00F0               	movwf	?__Umul8_16
  5019     0D6F                     l676:
  5020     0D6F  0008               	return
  5021     0D70                     __end_of__Umul8_16:
  5022                           
  5023                           	psect	text27
  5024     02DF                     __ptext27:	
  5025 ;; *************** function ___fldiv *****************
  5026 ;; Defined at:
  5027 ;;		line 8 in file "/Applications/microchip/xc8/v3.00/pic/sources/c99/common/sprcdiv.c"
  5028 ;; Parameters:    Size  Location     Type
  5029 ;;  a               4   26[BANK0 ] unsigned int 
  5030 ;;  b               4   30[BANK0 ] unsigned int 
  5031 ;; Auto vars:     Size  Location     Type
  5032 ;;  grs             4   46[BANK0 ] unsigned long 
  5033 ;;  rem             4   39[BANK0 ] unsigned long 
  5034 ;;  new_exp         2   44[BANK0 ] short 
  5035 ;;  aexp            1   51[BANK0 ] unsigned char 
  5036 ;;  bexp            1   50[BANK0 ] unsigned char 
  5037 ;;  sign            1   43[BANK0 ] unsigned char 
  5038 ;; Return value:  Size  Location     Type
  5039 ;;                  4   26[BANK0 ] unsigned char 
  5040 ;; Registers used:
  5041 ;;		wreg, status,2, status,0, btemp+1
  5042 ;; Tracked objects:
  5043 ;;		On entry : 0/0
  5044 ;;		On exit  : 0/0
  5045 ;;		Unchanged: 0/0
  5046 ;; Data sizes:     COMMON   BANK0   BANK1   BANK3   BANK2
  5047 ;;      Params:         0       8       0       0       0
  5048 ;;      Locals:         0      13       0       0       0
  5049 ;;      Temps:          0       5       0       0       0
  5050 ;;      Totals:         0      26       0       0       0
  5051 ;;Total ram usage:       26 bytes
  5052 ;; Hardware stack levels used: 1
  5053 ;; This function calls:
  5054 ;;		Nothing
  5055 ;; This function is called by:
  5056 ;;		_main
  5057 ;; This function uses a non-reentrant model
  5058 ;;
  5059                           
  5060     02DF                     ___fldiv:	
  5061                           ;psect for function ___fldiv
  5062                           
  5063     02DF                     l1921:	
  5064                           ;incstack = 0
  5065                           ; Regs used in ___fldiv: [wreg+status,2+status,0+btemp+1]
  5066                           
  5067     02DF  1283               	bcf	3,5	;RP0=0, select bank0
  5068     02E0  1303               	bcf	3,6	;RP1=0, select bank0
  5069     02E1  0841               	movf	___fldiv@b+3,w
  5070     02E2  00CB               	movwf	___fldiv@sign
  5071     02E3                     l1923:
  5072     02E3  3080               	movlw	128
  5073     02E4  05CB               	andwf	___fldiv@sign,f
  5074     02E5                     l1925:
  5075     02E5  0841               	movf	___fldiv@b+3,w
  5076     02E6  00C2               	movwf	??___fldiv
  5077     02E7  0742               	addwf	??___fldiv,w
  5078     02E8  00D2               	movwf	___fldiv@bexp
  5079     02E9                     l1927:
  5080     02E9  1FC0               	btfss	___fldiv@b+2,7
  5081     02EA  2AEC               	goto	u2161
  5082     02EB  2AED               	goto	u2160
  5083     02EC                     u2161:
  5084     02EC  2AEE               	goto	l1931
  5085     02ED                     u2160:
  5086     02ED                     l1929:
  5087     02ED  1452               	bsf	___fldiv@bexp,0
  5088     02EE                     l1931:
  5089     02EE  0852               	movf	___fldiv@bexp,w
  5090     02EF  1903               	btfsc	3,2
  5091     02F0  2AF2               	goto	u2171
  5092     02F1  2AF3               	goto	u2170
  5093     02F2                     u2171:
  5094     02F2  2B03               	goto	l1941
  5095     02F3                     u2170:
  5096     02F3                     l1933:
  5097     02F3  0A52               	incf	___fldiv@bexp,w
  5098     02F4  1D03               	btfss	3,2
  5099     02F5  2AF7               	goto	u2181
  5100     02F6  2AF8               	goto	u2180
  5101     02F7                     u2181:
  5102     02F7  2B00               	goto	l1937
  5103     02F8                     u2180:
  5104     02F8                     l1935:
  5105     02F8  3000               	movlw	0
  5106     02F9  00C1               	movwf	___fldiv@b+3
  5107     02FA  3000               	movlw	0
  5108     02FB  00C0               	movwf	___fldiv@b+2
  5109     02FC  3000               	movlw	0
  5110     02FD  00BF               	movwf	___fldiv@b+1
  5111     02FE  3000               	movlw	0
  5112     02FF  00BE               	movwf	___fldiv@b
  5113     0300                     l1937:
  5114     0300  17C0               	bsf	___fldiv@b+2,7
  5115     0301                     l1939:
  5116     0301  01C1               	clrf	___fldiv@b+3
  5117     0302  2B0B               	goto	l1943
  5118     0303                     l1941:
  5119     0303  3000               	movlw	0
  5120     0304  00C1               	movwf	___fldiv@b+3
  5121     0305  3000               	movlw	0
  5122     0306  00C0               	movwf	___fldiv@b+2
  5123     0307  3000               	movlw	0
  5124     0308  00BF               	movwf	___fldiv@b+1
  5125     0309  3000               	movlw	0
  5126     030A  00BE               	movwf	___fldiv@b
  5127     030B                     l1943:
  5128     030B  083D               	movf	___fldiv@a+3,w
  5129     030C  3980               	andlw	128
  5130     030D  06CB               	xorwf	___fldiv@sign,f
  5131     030E                     l1945:
  5132     030E  083D               	movf	___fldiv@a+3,w
  5133     030F  00C2               	movwf	??___fldiv
  5134     0310  0742               	addwf	??___fldiv,w
  5135     0311  00D3               	movwf	___fldiv@aexp
  5136     0312                     l1947:
  5137     0312  1FBC               	btfss	___fldiv@a+2,7
  5138     0313  2B15               	goto	u2191
  5139     0314  2B16               	goto	u2190
  5140     0315                     u2191:
  5141     0315  2B17               	goto	l1951
  5142     0316                     u2190:
  5143     0316                     l1949:
  5144     0316  1453               	bsf	___fldiv@aexp,0
  5145     0317                     l1951:
  5146     0317  0853               	movf	___fldiv@aexp,w
  5147     0318  1903               	btfsc	3,2
  5148     0319  2B1B               	goto	u2201
  5149     031A  2B1C               	goto	u2200
  5150     031B                     u2201:
  5151     031B  2B2C               	goto	l1961
  5152     031C                     u2200:
  5153     031C                     l1953:
  5154     031C  0A53               	incf	___fldiv@aexp,w
  5155     031D  1D03               	btfss	3,2
  5156     031E  2B20               	goto	u2211
  5157     031F  2B21               	goto	u2210
  5158     0320                     u2211:
  5159     0320  2B29               	goto	l1957
  5160     0321                     u2210:
  5161     0321                     l1955:
  5162     0321  3000               	movlw	0
  5163     0322  00BD               	movwf	___fldiv@a+3
  5164     0323  3000               	movlw	0
  5165     0324  00BC               	movwf	___fldiv@a+2
  5166     0325  3000               	movlw	0
  5167     0326  00BB               	movwf	___fldiv@a+1
  5168     0327  3000               	movlw	0
  5169     0328  00BA               	movwf	___fldiv@a
  5170     0329                     l1957:
  5171     0329  17BC               	bsf	___fldiv@a+2,7
  5172     032A                     l1959:
  5173     032A  01BD               	clrf	___fldiv@a+3
  5174     032B  2B34               	goto	l615
  5175     032C                     l1961:
  5176     032C  3000               	movlw	0
  5177     032D  00BD               	movwf	___fldiv@a+3
  5178     032E  3000               	movlw	0
  5179     032F  00BC               	movwf	___fldiv@a+2
  5180     0330  3000               	movlw	0
  5181     0331  00BB               	movwf	___fldiv@a+1
  5182     0332  3000               	movlw	0
  5183     0333  00BA               	movwf	___fldiv@a
  5184     0334                     l615:
  5185     0334  083D               	movf	___fldiv@a+3,w
  5186     0335  043C               	iorwf	___fldiv@a+2,w
  5187     0336  043B               	iorwf	___fldiv@a+1,w
  5188     0337  043A               	iorwf	___fldiv@a,w
  5189     0338  1D03               	skipz
  5190     0339  2B3B               	goto	u2221
  5191     033A  2B3C               	goto	u2220
  5192     033B                     u2221:
  5193     033B  2B53               	goto	l1971
  5194     033C                     u2220:
  5195     033C                     l1963:
  5196     033C  3000               	movlw	0
  5197     033D  00C1               	movwf	___fldiv@b+3
  5198     033E  3000               	movlw	0
  5199     033F  00C0               	movwf	___fldiv@b+2
  5200     0340  3000               	movlw	0
  5201     0341  00BF               	movwf	___fldiv@b+1
  5202     0342  3000               	movlw	0
  5203     0343  00BE               	movwf	___fldiv@b
  5204     0344  3080               	movlw	128
  5205     0345  04C0               	iorwf	___fldiv@b+2,f
  5206     0346  307F               	movlw	127
  5207     0347  04C1               	iorwf	___fldiv@b+3,f
  5208     0348                     l1965:
  5209     0348  084B               	movf	___fldiv@sign,w
  5210     0349  04C1               	iorwf	___fldiv@b+3,f
  5211     034A                     l1967:
  5212     034A  0841               	movf	___fldiv@b+3,w
  5213     034B  00BD               	movwf	?___fldiv+3
  5214     034C  0840               	movf	___fldiv@b+2,w
  5215     034D  00BC               	movwf	?___fldiv+2
  5216     034E  083F               	movf	___fldiv@b+1,w
  5217     034F  00BB               	movwf	?___fldiv+1
  5218     0350  083E               	movf	___fldiv@b,w
  5219     0351  00BA               	movwf	?___fldiv
  5220     0352  2CA8               	goto	l617
  5221     0353                     l1971:
  5222     0353  0852               	movf	___fldiv@bexp,w
  5223     0354  1D03               	btfss	3,2
  5224     0355  2B57               	goto	u2231
  5225     0356  2B58               	goto	u2230
  5226     0357                     u2231:
  5227     0357  2B61               	goto	l1977
  5228     0358                     u2230:
  5229     0358                     l1973:
  5230     0358  3000               	movlw	0
  5231     0359  00BD               	movwf	?___fldiv+3
  5232     035A  3000               	movlw	0
  5233     035B  00BC               	movwf	?___fldiv+2
  5234     035C  3000               	movlw	0
  5235     035D  00BB               	movwf	?___fldiv+1
  5236     035E  3000               	movlw	0
  5237     035F  00BA               	movwf	?___fldiv
  5238     0360  2CA8               	goto	l617
  5239     0361                     l1977:
  5240     0361  0852               	movf	___fldiv@bexp,w
  5241     0362  00C2               	movwf	??___fldiv
  5242     0363  01C3               	clrf	??___fldiv+1
  5243     0364  0843               	movf	??___fldiv+1,w
  5244     0365  00C5               	movwf	??___fldiv+3
  5245     0366  0853               	movf	___fldiv@aexp,w
  5246     0367  0242               	subwf	??___fldiv,w
  5247     0368  00C4               	movwf	??___fldiv+2
  5248     0369  1C03               	skipc
  5249     036A  03C5               	decf	??___fldiv+3,f
  5250     036B  0844               	movf	??___fldiv+2,w
  5251     036C  3E7F               	addlw	127
  5252     036D  00CC               	movwf	___fldiv@new_exp
  5253     036E  0845               	movf	??___fldiv+3,w
  5254     036F  1803               	skipnc
  5255     0370  3E01               	addlw	1
  5256     0371  3E00               	addlw	0
  5257     0372  00CD               	movwf	___fldiv@new_exp+1
  5258     0373                     l1979:
  5259     0373  0841               	movf	___fldiv@b+3,w
  5260     0374  00CA               	movwf	___fldiv@rem+3
  5261     0375  0840               	movf	___fldiv@b+2,w
  5262     0376  00C9               	movwf	___fldiv@rem+2
  5263     0377  083F               	movf	___fldiv@b+1,w
  5264     0378  00C8               	movwf	___fldiv@rem+1
  5265     0379  083E               	movf	___fldiv@b,w
  5266     037A  00C7               	movwf	___fldiv@rem
  5267     037B                     l1981:
  5268     037B  3000               	movlw	0
  5269     037C  00C1               	movwf	___fldiv@b+3
  5270     037D  3000               	movlw	0
  5271     037E  00C0               	movwf	___fldiv@b+2
  5272     037F  3000               	movlw	0
  5273     0380  00BF               	movwf	___fldiv@b+1
  5274     0381  3000               	movlw	0
  5275     0382  00BE               	movwf	___fldiv@b
  5276     0383                     l1983:
  5277     0383  3000               	movlw	0
  5278     0384  00D1               	movwf	___fldiv@grs+3
  5279     0385  3000               	movlw	0
  5280     0386  00D0               	movwf	___fldiv@grs+2
  5281     0387  3000               	movlw	0
  5282     0388  00CF               	movwf	___fldiv@grs+1
  5283     0389  3000               	movlw	0
  5284     038A  00CE               	movwf	___fldiv@grs
  5285     038B                     l1985:
  5286     038B  01D3               	clrf	___fldiv@aexp
  5287     038C  2BD5               	goto	l2005
  5288     038D                     l1987:
  5289     038D  0853               	movf	___fldiv@aexp,w
  5290     038E  1903               	btfsc	3,2
  5291     038F  2B91               	goto	u2241
  5292     0390  2B92               	goto	u2240
  5293     0391                     u2241:
  5294     0391  2BB2               	goto	l1997
  5295     0392                     u2240:
  5296     0392                     l1989:
  5297     0392  3001               	movlw	1
  5298     0393  00C2               	movwf	??___fldiv
  5299     0394                     u2255:
  5300     0394  1003               	clrc
  5301     0395  0DC7               	rlf	___fldiv@rem,f
  5302     0396  0DC8               	rlf	___fldiv@rem+1,f
  5303     0397  0DC9               	rlf	___fldiv@rem+2,f
  5304     0398  0DCA               	rlf	___fldiv@rem+3,f
  5305     0399  0BC2               	decfsz	??___fldiv,f
  5306     039A  2B94               	goto	u2255
  5307     039B  3001               	movlw	1
  5308     039C  00C2               	movwf	??___fldiv
  5309     039D                     u2265:
  5310     039D  1003               	clrc
  5311     039E  0DBE               	rlf	___fldiv@b,f
  5312     039F  0DBF               	rlf	___fldiv@b+1,f
  5313     03A0  0DC0               	rlf	___fldiv@b+2,f
  5314     03A1  0DC1               	rlf	___fldiv@b+3,f
  5315     03A2  0BC2               	decfsz	??___fldiv,f
  5316     03A3  2B9D               	goto	u2265
  5317     03A4                     l1991:
  5318     03A4  1FD1               	btfss	___fldiv@grs+3,7
  5319     03A5  2BA7               	goto	u2271
  5320     03A6  2BA8               	goto	u2270
  5321     03A7                     u2271:
  5322     03A7  2BA9               	goto	l1995
  5323     03A8                     u2270:
  5324     03A8                     l1993:
  5325     03A8  143E               	bsf	___fldiv@b,0
  5326     03A9                     l1995:
  5327     03A9  3001               	movlw	1
  5328     03AA  00C2               	movwf	??___fldiv
  5329     03AB                     u2285:
  5330     03AB  1003               	clrc
  5331     03AC  0DCE               	rlf	___fldiv@grs,f
  5332     03AD  0DCF               	rlf	___fldiv@grs+1,f
  5333     03AE  0DD0               	rlf	___fldiv@grs+2,f
  5334     03AF  0DD1               	rlf	___fldiv@grs+3,f
  5335     03B0  0BC2               	decfsz	??___fldiv,f
  5336     03B1  2BAB               	goto	u2285
  5337     03B2                     l1997:
  5338     03B2  083D               	movf	___fldiv@a+3,w
  5339     03B3  024A               	subwf	___fldiv@rem+3,w
  5340     03B4  1D03               	skipz
  5341     03B5  2BC0               	goto	u2295
  5342     03B6  083C               	movf	___fldiv@a+2,w
  5343     03B7  0249               	subwf	___fldiv@rem+2,w
  5344     03B8  1D03               	skipz
  5345     03B9  2BC0               	goto	u2295
  5346     03BA  083B               	movf	___fldiv@a+1,w
  5347     03BB  0248               	subwf	___fldiv@rem+1,w
  5348     03BC  1D03               	skipz
  5349     03BD  2BC0               	goto	u2295
  5350     03BE  083A               	movf	___fldiv@a,w
  5351     03BF  0247               	subwf	___fldiv@rem,w
  5352     03C0                     u2295:
  5353     03C0  1C03               	skipc
  5354     03C1  2BC3               	goto	u2291
  5355     03C2  2BC4               	goto	u2290
  5356     03C3                     u2291:
  5357     03C3  2BD3               	goto	l2003
  5358     03C4                     u2290:
  5359     03C4                     l1999:
  5360     03C4  1751               	bsf	___fldiv@grs+3,6
  5361     03C5                     l2001:
  5362     03C5  083A               	movf	___fldiv@a,w
  5363     03C6  02C7               	subwf	___fldiv@rem,f
  5364     03C7  083B               	movf	___fldiv@a+1,w
  5365     03C8  1C03               	skipc
  5366     03C9  0F3B               	incfsz	___fldiv@a+1,w
  5367     03CA  02C8               	subwf	___fldiv@rem+1,f
  5368     03CB  083C               	movf	___fldiv@a+2,w
  5369     03CC  1C03               	skipc
  5370     03CD  0F3C               	incfsz	___fldiv@a+2,w
  5371     03CE  02C9               	subwf	___fldiv@rem+2,f
  5372     03CF  083D               	movf	___fldiv@a+3,w
  5373     03D0  1C03               	skipc
  5374     03D1  0F3D               	incfsz	___fldiv@a+3,w
  5375     03D2  02CA               	subwf	___fldiv@rem+3,f
  5376     03D3                     l2003:
  5377     03D3  3001               	movlw	1
  5378     03D4  07D3               	addwf	___fldiv@aexp,f
  5379     03D5                     l2005:
  5380     03D5  301A               	movlw	26
  5381     03D6  0253               	subwf	___fldiv@aexp,w
  5382     03D7  1C03               	skipc
  5383     03D8  2BDA               	goto	u2301
  5384     03D9  2BDB               	goto	u2300
  5385     03DA                     u2301:
  5386     03DA  2B8D               	goto	l1987
  5387     03DB                     u2300:
  5388     03DB                     l2007:
  5389     03DB  084A               	movf	___fldiv@rem+3,w
  5390     03DC  0449               	iorwf	___fldiv@rem+2,w
  5391     03DD  0448               	iorwf	___fldiv@rem+1,w
  5392     03DE  0447               	iorwf	___fldiv@rem,w
  5393     03DF  1903               	skipnz
  5394     03E0  2BE2               	goto	u2311
  5395     03E1  2BE3               	goto	u2310
  5396     03E2                     u2311:
  5397     03E2  2C02               	goto	l2021
  5398     03E3                     u2310:
  5399     03E3                     l2009:
  5400     03E3  144E               	bsf	___fldiv@grs,0
  5401     03E4  2C02               	goto	l2021
  5402     03E5                     l2011:
  5403     03E5  3001               	movlw	1
  5404     03E6  00C2               	movwf	??___fldiv
  5405     03E7                     u2325:
  5406     03E7  1003               	clrc
  5407     03E8  0DBE               	rlf	___fldiv@b,f
  5408     03E9  0DBF               	rlf	___fldiv@b+1,f
  5409     03EA  0DC0               	rlf	___fldiv@b+2,f
  5410     03EB  0DC1               	rlf	___fldiv@b+3,f
  5411     03EC  0BC2               	decfsz	??___fldiv,f
  5412     03ED  2BE7               	goto	u2325
  5413     03EE                     l2013:
  5414     03EE  1FD1               	btfss	___fldiv@grs+3,7
  5415     03EF  2BF1               	goto	u2331
  5416     03F0  2BF2               	goto	u2330
  5417     03F1                     u2331:
  5418     03F1  2BF3               	goto	l2017
  5419     03F2                     u2330:
  5420     03F2                     l2015:
  5421     03F2  143E               	bsf	___fldiv@b,0
  5422     03F3                     l2017:
  5423     03F3  3001               	movlw	1
  5424     03F4  00C2               	movwf	??___fldiv
  5425     03F5                     u2345:
  5426     03F5  1003               	clrc
  5427     03F6  0DCE               	rlf	___fldiv@grs,f
  5428     03F7  0DCF               	rlf	___fldiv@grs+1,f
  5429     03F8  0DD0               	rlf	___fldiv@grs+2,f
  5430     03F9  0DD1               	rlf	___fldiv@grs+3,f
  5431     03FA  0BC2               	decfsz	??___fldiv,f
  5432     03FB  2BF5               	goto	u2345
  5433     03FC                     l2019:
  5434     03FC  30FF               	movlw	255
  5435     03FD  07CC               	addwf	___fldiv@new_exp,f
  5436     03FE  1803               	skipnc
  5437     03FF  0ACD               	incf	___fldiv@new_exp+1,f
  5438     0400  30FF               	movlw	255
  5439     0401  07CD               	addwf	___fldiv@new_exp+1,f
  5440     0402                     l2021:
  5441     0402  1FC0               	btfss	___fldiv@b+2,7
  5442     0403  2C05               	goto	u2351
  5443     0404  2C06               	goto	u2350
  5444     0405                     u2351:
  5445     0405  2BE5               	goto	l2011
  5446     0406                     u2350:
  5447     0406                     l2023:
  5448     0406  01D3               	clrf	___fldiv@aexp
  5449     0407                     l2025:
  5450     0407  1FD1               	btfss	___fldiv@grs+3,7
  5451     0408  2C0A               	goto	u2361
  5452     0409  2C0B               	goto	u2360
  5453     040A                     u2361:
  5454     040A  2C27               	goto	l2033
  5455     040B                     u2360:
  5456     040B                     l2027:
  5457     040B  30FF               	movlw	255
  5458     040C  054E               	andwf	___fldiv@grs,w
  5459     040D  00C2               	movwf	??___fldiv
  5460     040E  30FF               	movlw	255
  5461     040F  054F               	andwf	___fldiv@grs+1,w
  5462     0410  00C3               	movwf	??___fldiv+1
  5463     0411  30FF               	movlw	255
  5464     0412  0550               	andwf	___fldiv@grs+2,w
  5465     0413  00C4               	movwf	??___fldiv+2
  5466     0414  307F               	movlw	127
  5467     0415  0551               	andwf	___fldiv@grs+3,w
  5468     0416  00C5               	movwf	??___fldiv+3
  5469     0417  0845               	movf	??___fldiv+3,w
  5470     0418  0444               	iorwf	??___fldiv+2,w
  5471     0419  0443               	iorwf	??___fldiv+1,w
  5472     041A  0442               	iorwf	??___fldiv,w
  5473     041B  1903               	skipnz
  5474     041C  2C1E               	goto	u2371
  5475     041D  2C1F               	goto	u2370
  5476     041E                     u2371:
  5477     041E  2C22               	goto	l631
  5478     041F                     u2370:
  5479     041F                     l2029:
  5480     041F  3001               	movlw	1
  5481     0420  00D3               	movwf	___fldiv@aexp
  5482     0421  2C27               	goto	l2033
  5483     0422                     l631:
  5484     0422  1C3E               	btfss	___fldiv@b,0
  5485     0423  2C25               	goto	u2381
  5486     0424  2C26               	goto	u2380
  5487     0425                     u2381:
  5488     0425  2C27               	goto	l2033
  5489     0426                     u2380:
  5490     0426  2C1F               	goto	l2029
  5491     0427                     l2033:
  5492     0427  0853               	movf	___fldiv@aexp,w
  5493     0428  1903               	btfsc	3,2
  5494     0429  2C2B               	goto	u2391
  5495     042A  2C2C               	goto	u2390
  5496     042B                     u2391:
  5497     042B  2C5D               	goto	l2043
  5498     042C                     u2390:
  5499     042C                     l2035:
  5500     042C  3001               	movlw	1
  5501     042D  07BE               	addwf	___fldiv@b,f
  5502     042E  3000               	movlw	0
  5503     042F  1803               	skipnc
  5504     0430  3001               	movlw	1
  5505     0431  07BF               	addwf	___fldiv@b+1,f
  5506     0432  3000               	movlw	0
  5507     0433  1803               	skipnc
  5508     0434  3001               	movlw	1
  5509     0435  07C0               	addwf	___fldiv@b+2,f
  5510     0436  3000               	movlw	0
  5511     0437  1803               	skipnc
  5512     0438  3001               	movlw	1
  5513     0439  07C1               	addwf	___fldiv@b+3,f
  5514     043A                     l2037:
  5515     043A  1C41               	btfss	___fldiv@b+3,0
  5516     043B  2C3D               	goto	u2401
  5517     043C  2C3E               	goto	u2400
  5518     043D                     u2401:
  5519     043D  2C5D               	goto	l2043
  5520     043E                     u2400:
  5521     043E                     l2039:
  5522     043E  083E               	movf	___fldiv@b,w
  5523     043F  00C2               	movwf	??___fldiv
  5524     0440  083F               	movf	___fldiv@b+1,w
  5525     0441  00C3               	movwf	??___fldiv+1
  5526     0442  0840               	movf	___fldiv@b+2,w
  5527     0443  00C4               	movwf	??___fldiv+2
  5528     0444  0841               	movf	___fldiv@b+3,w
  5529     0445  00C5               	movwf	??___fldiv+3
  5530     0446  3001               	movlw	1
  5531     0447  00C6               	movwf	??___fldiv+4
  5532     0448                     u2415:
  5533     0448  0D45               	rlf	??___fldiv+3,w
  5534     0449  0CC5               	rrf	??___fldiv+3,f
  5535     044A  0CC4               	rrf	??___fldiv+2,f
  5536     044B  0CC3               	rrf	??___fldiv+1,f
  5537     044C  0CC2               	rrf	??___fldiv,f
  5538     044D                     u2410:
  5539     044D  0BC6               	decfsz	??___fldiv+4,f
  5540     044E  2C48               	goto	u2415
  5541     044F  0845               	movf	??___fldiv+3,w
  5542     0450  00C1               	movwf	___fldiv@b+3
  5543     0451  0844               	movf	??___fldiv+2,w
  5544     0452  00C0               	movwf	___fldiv@b+2
  5545     0453  0843               	movf	??___fldiv+1,w
  5546     0454  00BF               	movwf	___fldiv@b+1
  5547     0455  0842               	movf	??___fldiv,w
  5548     0456  00BE               	movwf	___fldiv@b
  5549     0457                     l2041:
  5550     0457  3001               	movlw	1
  5551     0458  07CC               	addwf	___fldiv@new_exp,f
  5552     0459  1803               	skipnc
  5553     045A  0ACD               	incf	___fldiv@new_exp+1,f
  5554     045B  3000               	movlw	0
  5555     045C  07CD               	addwf	___fldiv@new_exp+1,f
  5556     045D                     l2043:
  5557     045D  084D               	movf	___fldiv@new_exp+1,w
  5558     045E  3A80               	xorlw	128
  5559     045F  00FF               	movwf	btemp+1
  5560     0460  3080               	movlw	128
  5561     0461  027F               	subwf	btemp+1,w
  5562     0462  1D03               	skipz
  5563     0463  2C66               	goto	u2425
  5564     0464  30FF               	movlw	255
  5565     0465  024C               	subwf	___fldiv@new_exp,w
  5566     0466                     u2425:
  5567     0466  1C03               	skipc
  5568     0467  2C69               	goto	u2421
  5569     0468  2C6A               	goto	u2420
  5570     0469                     u2421:
  5571     0469  2C78               	goto	l2047
  5572     046A                     u2420:
  5573     046A                     l2045:
  5574     046A  30FF               	movlw	255
  5575     046B  1283               	bcf	3,5	;RP0=0, select bank0
  5576     046C  1303               	bcf	3,6	;RP1=0, select bank0
  5577     046D  00CC               	movwf	___fldiv@new_exp
  5578     046E  3000               	movlw	0
  5579     046F  00CD               	movwf	___fldiv@new_exp+1
  5580     0470  3000               	movlw	0
  5581     0471  00C1               	movwf	___fldiv@b+3
  5582     0472  3000               	movlw	0
  5583     0473  00C0               	movwf	___fldiv@b+2
  5584     0474  3000               	movlw	0
  5585     0475  00BF               	movwf	___fldiv@b+1
  5586     0476  3000               	movlw	0
  5587     0477  00BE               	movwf	___fldiv@b
  5588     0478                     l2047:
  5589     0478  1283               	bcf	3,5	;RP0=0, select bank0
  5590     0479  1303               	bcf	3,6	;RP1=0, select bank0
  5591     047A  084D               	movf	___fldiv@new_exp+1,w
  5592     047B  3A80               	xorlw	128
  5593     047C  00FF               	movwf	btemp+1
  5594     047D  3080               	movlw	128
  5595     047E  027F               	subwf	btemp+1,w
  5596     047F  1D03               	skipz
  5597     0480  2C83               	goto	u2435
  5598     0481  3001               	movlw	1
  5599     0482  024C               	subwf	___fldiv@new_exp,w
  5600     0483                     u2435:
  5601     0483  1803               	skipnc
  5602     0484  2C86               	goto	u2431
  5603     0485  2C87               	goto	u2430
  5604     0486                     u2431:
  5605     0486  2C94               	goto	l637
  5606     0487                     u2430:
  5607     0487                     l2049:
  5608     0487  1283               	bcf	3,5	;RP0=0, select bank0
  5609     0488  1303               	bcf	3,6	;RP1=0, select bank0
  5610     0489  01CC               	clrf	___fldiv@new_exp
  5611     048A  01CD               	clrf	___fldiv@new_exp+1
  5612     048B                     l2051:
  5613     048B  3000               	movlw	0
  5614     048C  00C1               	movwf	___fldiv@b+3
  5615     048D  3000               	movlw	0
  5616     048E  00C0               	movwf	___fldiv@b+2
  5617     048F  3000               	movlw	0
  5618     0490  00BF               	movwf	___fldiv@b+1
  5619     0491  3000               	movlw	0
  5620     0492  00BE               	movwf	___fldiv@b
  5621     0493                     l2053:
  5622     0493  01CB               	clrf	___fldiv@sign
  5623     0494                     l637:
  5624     0494  1283               	bcf	3,5	;RP0=0, select bank0
  5625     0495  1303               	bcf	3,6	;RP1=0, select bank0
  5626     0496  084C               	movf	___fldiv@new_exp,w
  5627     0497  00D2               	movwf	___fldiv@bexp
  5628     0498                     l2055:
  5629     0498  1C52               	btfss	___fldiv@bexp,0
  5630     0499  2C9B               	goto	u2441
  5631     049A  2C9C               	goto	u2440
  5632     049B                     u2441:
  5633     049B  2C9E               	goto	l2059
  5634     049C                     u2440:
  5635     049C                     l2057:
  5636     049C  17C0               	bsf	___fldiv@b+2,7
  5637     049D  2CA0               	goto	l639
  5638     049E                     l2059:
  5639     049E  307F               	movlw	127
  5640     049F  05C0               	andwf	___fldiv@b+2,f
  5641     04A0                     l639:
  5642     04A0  0852               	movf	___fldiv@bexp,w
  5643     04A1  00C2               	movwf	??___fldiv
  5644     04A2  1003               	clrc
  5645     04A3  0C42               	rrf	??___fldiv,w
  5646     04A4  00C1               	movwf	___fldiv@b+3
  5647     04A5  084B               	movf	___fldiv@sign,w
  5648     04A6  04C1               	iorwf	___fldiv@b+3,f
  5649     04A7  2B4A               	goto	l1967
  5650     04A8                     l617:
  5651     04A8  0008               	return
  5652     04A9                     __end_of___fldiv:
  5653     0002                     ___latbits      equ	2
  5654     007E                     btemp           set	126	;btemp
  5655     007E                     wtemp0          set	126

Data Sizes:
    Strings     3
    Constant    0
    Data        0
    BSS         53
    Persistent  0
    Stack       0

Auto Spaces:
    Space          Size  Autos    Used
    COMMON           14     14      14
    BANK0            80     72      80
    BANK1            80      0      45
    BANK3            96      0       0
    BANK2            96      0       0

Pointer List with Targets:

    convert_uint16_to_string@str	PTR unsigned char  size(1) Largest target is 7
		 -> adc_res_real_txt(BANK1[7]), 

    f$.$buffer	PTR unsigned char  size(2) Largest target is 6
		 -> convert_uint16_to_string@Temp_String(BANK0[6]), 

    f$.$source	PTR const unsigned char  size(1) Largest target is 0

    fputc@fp	PTR struct _IO_FILE size(2) Largest target is 11
		 -> sprintf@f(BANK0[11]), 

    fputc@fp$.$buffer	PTR unsigned char  size(2) Largest target is 6
		 -> convert_uint16_to_string@Temp_String(BANK0[6]), 

    fputc@fp$.$source	PTR const unsigned char  size(1) Largest target is 0

    lcd_4bit_send_string@str	PTR unsigned char  size(1) Largest target is 7
		 -> adc_res_real_txt(BANK1[7]), 

    memset@dest	PTR void  size(1) Largest target is 7
		 -> adc_res_real_txt(BANK1[7]), 

    memset@p	PTR unsigned char  size(1) Largest target is 7
		 -> adc_res_real_txt(BANK1[7]), 

    S643$buffer	PTR unsigned char  size(2) Largest target is 6
		 -> convert_uint16_to_string@Temp_String(BANK0[6]), 

    S643$source	PTR const unsigned char  size(1) Largest target is 0

    sp__memset	PTR void  size(1) Largest target is 7
		 -> adc_res_real_txt(BANK1[7]), 

    sprintf@ap	PTR void [1] size(1) Largest target is 2
		 -> ?_sprintf(BANK0[2]), 

    sprintf@fmt	PTR const unsigned char  size(1) Largest target is 3
		 -> STR_1(CODE[3]), STR_2(CODE[3]), 

    sprintf@s	PTR unsigned char  size(1) Largest target is 6
		 -> convert_uint16_to_string@Temp_String(BANK0[6]), 

    vfpfcnvrt@ap	PTR PTR void  size(1) Largest target is 1
		 -> sprintf@ap(BANK0[1]), 

    vfpfcnvrt@cp	PTR unsigned char  size(1) Largest target is 3
		 -> STR_1(CODE[3]), STR_2(CODE[3]), 

    vfpfcnvrt@fmt	PTR PTR unsigned char  size(1) Largest target is 1
		 -> vfprintf@cfmt(COMMON[1]), 

    vfpfcnvrt@fp	PTR struct _IO_FILE size(2) Largest target is 11
		 -> sprintf@f(BANK0[11]), 

    vfprintf@ap	PTR PTR void  size(1) Largest target is 1
		 -> sprintf@ap(BANK0[1]), 

    vfprintf@cfmt	PTR unsigned char  size(1) Largest target is 3
		 -> STR_1(CODE[3]), STR_2(CODE[3]), 

    vfprintf@fmt	PTR const unsigned char  size(1) Largest target is 3
		 -> STR_1(CODE[3]), STR_2(CODE[3]), 

    vfprintf@fp	PTR struct _IO_FILE size(2) Largest target is 11
		 -> sprintf@f(BANK0[11]), 


Critical Paths under _main in COMMON

    _main->___xxtofl
    _lcd_4bit_set_cursor->_lcd_4bit_send_command
    _lcd_4bit_send_string->_lcd_4bit_send_char_data
    _lcd_4bit_send_char_data->_lcd_send_4bits
    _lcd_4bit_intialize->_lcd_4bit_send_command
    _lcd_4bit_clear->_lcd_4bit_send_command
    _lcd_4bit_send_command->_lcd_send_4bits
    _sprintf->_vfprintf
    _vfpfcnvrt->_fputc
    _abs->___awmod
    _adc_read->___xxtofl
    ___fltol->___xxtofl
    ___flmul->___xxtofl
    ___fldiv->___xxtofl

Critical Paths under _main in BANK0

    _main->_adc_read
    _convert_uint16_to_string->_sprintf
    _sprintf->_vfprintf
    _vfprintf->_vfpfcnvrt
    _adc_read->___fltol
    ___fltol->___fldiv
    ___fldiv->___flmul

Critical Paths under _main in BANK1

    None.

Critical Paths under _main in BANK3

    None.

Critical Paths under _main in BANK2

    None.

Call Graph Tables:

 ---------------------------------------------------------------------------------
 (Depth) Function   	        Calls       Base Space   Used Autos Params    Refs
 ---------------------------------------------------------------------------------
 (0) _main                                                 4     4      0    6845
                                             68 BANK0      4     4      0
                            ___fldiv
                            ___flmul
                            ___fltol
                           ___xxtofl
                     _adc_initialize
                           _adc_read
           _convert_uint16_to_string
                     _lcd_4bit_clear
                 _lcd_4bit_intialize
               _lcd_4bit_send_string
                _lcd_4bit_set_cursor
                          _uart_send
                 _uart_tx_initialize
 ---------------------------------------------------------------------------------
 (1) _uart_tx_initialize                                   0     0      0       0
 ---------------------------------------------------------------------------------
 (1) _uart_send                                            1     1      0      29
                                              0 COMMON     1     1      0
 ---------------------------------------------------------------------------------
 (1) _lcd_4bit_set_cursor                                  2     1      1     249
                                              5 COMMON     2     1      1
              _lcd_4bit_send_command
 ---------------------------------------------------------------------------------
 (1) _lcd_4bit_send_string                                 1     0      1     220
                                              5 COMMON     1     0      1
            _lcd_4bit_send_char_data
 ---------------------------------------------------------------------------------
 (2) _lcd_4bit_send_char_data                              2     2      0     174
                                              3 COMMON     2     2      0
        _lcd_4bit_send_enable_signal
                     _lcd_send_4bits
 ---------------------------------------------------------------------------------
 (1) _lcd_4bit_intialize                                   2     2      0     174
                                              5 COMMON     2     2      0
              _lcd_4bit_send_command
 ---------------------------------------------------------------------------------
 (1) _lcd_4bit_clear                                       0     0      0     174
              _lcd_4bit_send_command
 ---------------------------------------------------------------------------------
 (2) _lcd_4bit_send_command                                2     2      0     174
                                              3 COMMON     2     2      0
        _lcd_4bit_send_enable_signal
                     _lcd_send_4bits
 ---------------------------------------------------------------------------------
 (3) _lcd_send_4bits                                       3     3      0     116
                                              0 COMMON     3     3      0
 ---------------------------------------------------------------------------------
 (3) _lcd_4bit_send_enable_signal                          0     0      0       0
 ---------------------------------------------------------------------------------
 (1) _convert_uint16_to_string                            12     9      3    2099
                                             34 BANK0     12     9      3
                             _memset
                            _sprintf
 ---------------------------------------------------------------------------------
 (2) _sprintf                                             19    15      4    1766
                                             17 BANK0     17    13      4
                           _vfprintf
 ---------------------------------------------------------------------------------
 (3) _vfprintf                                             5     1      4    1559
                                             13 COMMON     1     1      0
                                             13 BANK0      4     0      4
                          _vfpfcnvrt
 ---------------------------------------------------------------------------------
 (4) _vfpfcnvrt                                           13     9      4    1434
                                              0 BANK0     13     9      4
                            ___awdiv
                            ___awmod
                                _abs
                              _fputc
 ---------------------------------------------------------------------------------
 (5) _fputc                                               13     9      4     230
                                              0 COMMON    13     9      4
                              _putch
 ---------------------------------------------------------------------------------
 (6) _putch                                                1     1      0       0
 ---------------------------------------------------------------------------------
 (5) _abs                                                  4     2      2      67
                                              6 COMMON     4     2      2
                            ___awmod (ARG)
 ---------------------------------------------------------------------------------
 (5) ___awmod                                              6     2      4     298
                                              0 COMMON     6     2      4
 ---------------------------------------------------------------------------------
 (5) ___awdiv                                              8     4      4     302
                                              0 COMMON     8     4      4
 ---------------------------------------------------------------------------------
 (2) _memset                                               6     1      5     102
                                              0 COMMON     6     1      5
 ---------------------------------------------------------------------------------
 (1) _adc_read                                             6     4      2     595
                                             62 BANK0      6     4      2
                            ___fltol
                           ___xxtofl
 ---------------------------------------------------------------------------------
 (2) ___xxtofl                                            14    10      4     339
                                              0 COMMON    14    10      4
 ---------------------------------------------------------------------------------
 (2) ___fltol                                             10     6      4     232
                                             52 BANK0     10     6      4
                            ___fldiv (ARG)
                            ___flmul (ARG)
                           ___xxtofl (ARG)
 ---------------------------------------------------------------------------------
 (1) _adc_initialize                                       0     0      0       0
 ---------------------------------------------------------------------------------
 (1) ___flmul                                             26    18      8    1610
                                              0 BANK0     26    18      8
                          __Umul8_16
                           ___xxtofl (ARG)
 ---------------------------------------------------------------------------------
 (2) __Umul8_16                                            9     7      2     139
                                              0 COMMON     9     7      2
 ---------------------------------------------------------------------------------
 (1) ___fldiv                                             26    18      8    1124
                                             26 BANK0     26    18      8
                            ___flmul (ARG)
                           ___xxtofl (ARG)
 ---------------------------------------------------------------------------------
 Estimated maximum stack depth 6
 ---------------------------------------------------------------------------------

 Call Graph Graphs:

 _main (ROOT)
   ___fldiv
     ___flmul (ARG)
       __Umul8_16
       ___xxtofl (ARG)
     ___xxtofl (ARG)
   ___flmul
   ___fltol
     ___fldiv (ARG)
     ___flmul (ARG)
     ___xxtofl (ARG)
   ___xxtofl
   _adc_initialize
   _adc_read
     ___fltol
     ___xxtofl
   _convert_uint16_to_string
     _memset
     _sprintf
       _vfprintf
         _vfpfcnvrt
           ___awdiv
           ___awmod
           _abs
             ___awmod (ARG)
           _fputc
             _putch
   _lcd_4bit_clear
     _lcd_4bit_send_command
       _lcd_4bit_send_enable_signal
       _lcd_send_4bits
   _lcd_4bit_intialize
     _lcd_4bit_send_command
   _lcd_4bit_send_string
     _lcd_4bit_send_char_data
       _lcd_4bit_send_enable_signal
       _lcd_send_4bits
   _lcd_4bit_set_cursor
     _lcd_4bit_send_command
   _uart_send
   _uart_tx_initialize

Address spaces:
Name               Size   Autos  Total    Usage
BITCOMMON           14      0       0      0.0%
BITBANK0            80      0       0      0.0%
BITBANK1            80      0       0      0.0%
BITBANK3            96      0       0      0.0%
BITBANK2            96      0       0      0.0%
COMMON              14     14      14    100.0%
BANK0               80     72      80    100.0%
BANK1               80      0      45     56.2%
BANK3               96      0       0      0.0%
BANK2               96      0       0      0.0%
STACK                0      0       0      0.0%
DATA                 0      0     139      0.0%


Microchip Technology PIC Macro Assembler V3.00 build 20241204225717 
Symbol Table                                                                                   Tue Mar  4 16:02:01 2025

                       ___fldiv@aexp 0053                         ___fldiv@bexp 0052  
                                  pc 0002                         ___fldiv@sign 004B  
                    ?_lcd_send_4bits 0070                         ___awdiv@sign 0075  
                                 fsr 0004                  __Umul8_16@word_mpld 0076  
                                l111 0E43                                  l120 000A  
                                l105 0D23                                  l122 000E  
                                l114 0C5F                                  l123 000F  
                                l132 0E98                                  l141 0C24  
                                l135 0CDB                                  l144 0CFE  
                                l152 0C95                                  l161 0C12  
                                l138 0DAC                                  l411 0072  
                                l158 0C49                                  l424 0EEF  
                                l169 0DF6                                  l452 0F65  
                                l700 00A6                                  l701 0126  
                                l462 0F65                                  l631 0422  
                                l615 0334                                  l712 00F0  
                                l720 0C78                                  l617 04A8  
                                l713 00FC                                  l705 00D4  
                                l801 0004                                  l459 0F50  
                                l637 0494                                  l661 075C  
                                l639 04A0                                  l655 07EA  
                                l727 0CB8                                  l674 0D5D  
                                l667 07E0                                  l771 0D48  
                                l676 0D6F                                  l765 02DE  
                                l790 0FFF                                  l778 0C35  
                                l699 0095                                  _RX9 00C6  
                                _TX9 04C6                                  _abs 0C25  
                                fsr0 0004                                  indf 0000  
__end_of_lcd_4bit_send_enable_signal 0C25          _lcd_4bit_send_enable_signal 0C1B  
                       ___awmod@sign 0075                         ___flmul@aexp 0032  
                       ___flmul@bexp 0033          lcd_send_4bits@_data_command 0072  
                       ___flmul@sign 002D                         ___flmul@temp 0038  
                       ___flmul@prod 0034            ?_convert_uint16_to_string 0042  
                       ___fltol@exp1 005D                                 l2001 03C5  
                               l2011 03E5                                 l2003 03D3  
                               ?_abs 0076                                 l2013 03EE  
                               l2021 0402                                 l2005 03D5  
                               l2101 04F4                                 l2023 0406  
                               l2015 03F2                                 l2007 03DB  
                               l2111 050F                                 l2103 04FC  
                               l2041 0457                                 l2033 0427  
                               l2025 0407                                 l2017 03F3  
                               l2009 03E3                                 l2201 07DB  
                               l2121 058B                                 l2113 051D  
                               l2105 0501                                 l2051 048B  
                               l2035 042C                                 l2043 045D  
                               l2027 040B                                 l2019 03FC  
                               l2203 07E2                                 l2131 05F7  
                               l2123 05A7                                 l2115 052A  
                               l2107 0506                                 l2211 0131  
                               l2053 0493                                 l2045 046A  
                               l2037 043A                                 l2029 041F  
                               l2141 0681                                 l2133 0605  
                               l2125 05C3                                 l2117 0545  
                               l2221 01D0                                 l2213 0136  
                               l2055 0498                                 l2047 0478  
                               l2039 043E                                 l2151 0711  
                               l2143 068F                                 l2135 0622  
                               l2127 05CC                                 l2119 0561  
                               l2071 04B3                                 l2223 01D6  
                               l2215 013B                                 l2207 0127  
                               l2057 049C                                 l2049 0487  
                               l2161 0736                                 l2153 071F  
                               l2145 06BA                                 l2137 0639  
                               l2129 05DA                                 l2081 04CA  
                               l2073 04B7                                 l2065 04A9  
                               l1521 0010                                 l2225 01E6  
                               l2217 0146                                 l2209 012C  
                               l2059 049E                                 l2171 0759  
                               l2155 0728                                 l2163 073C  
                               l2147 06E0                                 l2139 0656  
                               l2091 04DF                                 l2083 04CC  
                               l2075 04B8                                 l2067 04AD  
                               l1531 0020                                 l1523 0011  
                               l1611 0F91                                 l1603 0F66  
                               l2227 01EE                                 l2219 0193  
                               l2181 0778                                 l2165 0740  
                               l2157 072C                                 l2149 0708  
                               l2093 04E0                                 l2085 04D4  
                               l2077 04BD                                 l2069 04AF  
                               l1541 0032                                 l1533 0025  
                               l1525 0015                                 l1621 0C2A  
                               l1613 0FC3                                 l1605 0F6C  
                               l1701 0CEE                                 l2191 07BE  
                               l2183 0791                                 l2175 0761  
                               l2167 0741                                 l2159 072D  
                               l2095 04E5                                 l2087 04D7  
                               l2079 04C2                                 l1711 0C6A  
                               l1551 0056                                 l1543 0039  
                               l1535 0027                                 l1527 001A  
                               l1607 0F72                                 l1631 0211  
                               l1703 0CF3                                 l2193 07C8  
                               l2177 0766                                 l2185 0797  
                               l2169 0745                                 l2097 04EA  
                               l2089 04DB                                 l1801 00E6  
                               l1705 0C60                                 l1561 006E  
                               l1553 0057                                 l1545 003B  
                               l1537 0029                                 l1529 001C  
                               l1617 0C25                                 l1609 0F79  
                               l1641 0244                                 l1633 0215  
                               l1625 01F9                                 l1721 0CA2  
                               l1713 0C96                                 l2195 07CA  
                               l2187 07A4                                 l2179 0774  
                               l2099 04F2                                 l1811 0119  
                               l1803 00EA                                 l1707 0C63  
                               l1555 005E                                 l1547 003F  
                               l1539 002F                                 l1571 0EA3  
                               l1619 0C29                                 l1651 0287  
                               l1643 0246                                 l1635 0219  
                               l1627 0209                                 l1723 0CAF  
                               l1715 0C9A                                 l2197 07D6  
                               l2189 07AF                                 l1821 0D02  
                               l1741 0F22                                 l1733 0F04  
                               l1813 011D                                 l1805 00F4  
                               l1709 0C68                                 l1549 0050  
                               l1557 0064                                 l1581 0EB7  
                               l1573 0EA5                                 l1565 0E99  
                               l1661 02B3                                 l1653 028C  
                               l1645 024D                                 l1637 0225  
                               l1629 020D                                 l1717 0C9E  
                               l1901 0DE9                                 l2199 07DA  
                               l1831 0D11                                 l1823 0D06  
                               l1743 0F26                                 l1751 0F3E  
                               l1735 0F17                                 l1727 0EF0  
                               l1815 011E                                 l1807 00FE  
                               l1559 0069                                 l1591 0ED4  
                               l1583 0EBE                                 l1575 0EA9  
                               l1567 0E9A                                 l1655 0291  
                               l1663 02B7                                 l1647 026C  
                               l1639 0231                                 l1719 0CA0  
                               l1903 0DEB                                 l1911 0C8D  
                               l1921 02DF                                 l1841 0D1D  
                               l1833 0D13                                 l1825 0D07  
                               l1761 0F5A                                 l1737 0F18  
                               l1729 0EFB                                 l1809 0114  
                               l1593 0EDB                                 l1585 0EC0  
                               l1577 0EAE                                 l1569 0E9E  
                               l1657 0296                                 l1649 0281  
                               l1665 02BE                                 l1681 0D29  
                               l1913 0C36                                 l1905 0C7A  
                               l1931 02EE                                 l1923 02E3  
                               l1771 0D66                                 l1763 0D4A  
                               l1843 0D20                                 l1835 0D17  
                               l1827 0D0B                                 l1819 0CFF  
                               l1739 0F20                                 l1587 0EC4  
                               l1579 0EB4                                 l1595 0EE1  
                               l1659 029F                                 l1683 0D38  
                               l1675 0D71                                 l1691 0CBD  
                               l1851 0E55                                 l1915 0C37  
                               l1907 0C7D                                 l1933 02F3  
                               l1941 0303                                 l1925 02E5  
                               l1773 0D6B                                 l1765 0D4C  
                               l1837 0D19                                 l1829 0D0D  
                               l1757 0F45                                 l1749 0F2E  
                               l1781 007D                                 l1597 0EE6  
                               l1589 0ECE                                 l1669 02C5  
                               l1685 0D44                                 l1677 0C1B  
                               l1693 0CCB                                 l1861 0E7A  
                               l1853 0E5B                                 l1917 0C3F  
                               l1909 0C85                                 l1845 0C4A  
                               l1951 0317                                 l1943 030B  
                               l1935 02F8                                 l1927 02E9  
                               l1767 0D53                                 l1839 0D1B  
                               l1759 0F55                                 l1791 00B4  
                               l1783 008D                                 l1599 0EEB  
                               l1679 0D24                                 l1695 0CD0  
                               l1871 0C0C                                 l1863 0E80  
                               l1855 0E69                                 l1847 0E44  
                               l1919 0C41                                 l1953 031C  
                               l1961 032C                                 l1945 030E  
                               l1937 0300                                 l1929 02ED  
                               l1769 0D57                                 l1793 00BB  
                               l1785 009D                                 l1777 0074  
                               l1881 0E0D                                 l1873 0DF7  
                               l1689 0CBA                                 l1865 0E86  
                               l1857 0E6E                                 l1849 0E4C  
                               l1697 0CDD                                 l1963 033C  
                               l1971 0353                                 l1955 0321  
                               l1947 0312                                 l1939 0301  
                               l1795 00BD                                 l1779 0079  
                               l1883 0E3F                                 l1875 0DF7  
                               l1891 0DB6                                 l1867 0E8C  
                               l1859 0E74                                 l1699 0CE0  
                               l1981 037B                                 l1973 0358  
                               l1965 0348                                 l1957 0329  
                               l1949 0316                                 l1797 00CB  
                               l1789 00A9                                 l1877 0DFE  
                               l1893 0DB9                                 l1869 0E92  
                               l1991 03A4                                 l1983 0383  
                               l1967 034A                                 l1959 032A  
                               l1799 00DB                                 l1879 0E01  
                               l1895 0DC8                                 l1887 0006  
                               l1993 03A8                                 l1985 038B  
                               l1977 0361                                 l1897 0DCF  
                               l1889 0DAD                                 l1995 03A9  
                               l1987 038D                                 l1979 0373  
                               l1899 0DDD                                 l1989 0392  
                               l1997 03B2                                 l1999 03C4  
                               STR_1 0806                                 _BRGH 04C2  
                               _CREN 00C4                                 u2000 00BA  
                               u2001 00B9                                 u2020 00DA  
                               u2021 00D9                                 u2110 0E0D  
                               u2015 00CC                                 u2111 0E0C  
                               u2200 031C                                 u2040 00EA  
                               u2120 000E                                 u2201 031B  
                               u2041 00E9                                 u2105 0E04  
                               u2121 000D                                 u2210 0321  
                               u2050 00F0                                 u2130 0DB1  
                               u2211 0320                                 u2051 00EF  
                               u2035 00DF                                 u2300 03DB  
                               u2220 033C                                 u2060 00F4  
                               u1500 0064                                 u1420 0015  
                               u2140 0DF6                                 u2301 03DA  
                               u2221 033B                                 u2061 00F3  
                               u1501 0063                                 u1421 0014  
                               u2141 0DF5                                 u2310 03E3  
                               u2230 0358                                 u2070 0109  
                               u1510 0069                                 u1430 0020  
                               u2150 0C49                                 u2311 03E2  
                               u2231 0357                                 u1511 0068  
                               u1431 001F                                 u2151 0C48  
                               u2400 043E                                 u2240 0392  
                               u2160 02ED                                 u2080 0119  
                               u1440 002F                                 u1600 0EE6  
                               u1520 0E9E                                 u2401 043D  
                               u2241 0391                                 u2161 02EC  
                               u2081 0118                                 u1441 002E  
                               u1601 0EE5                                 u1521 0E9D  
                               u2410 044D                                 u2330 03F2  
                               u2170 02F3                                 u2090 011D  
                               u1530 0EA9                                 u1610 0F6C  
                               u2331 03F1                                 u2171 02F2  
                               u2091 011C                                 u2075 0104  
                               u1531 0EA8                                 u1611 0F6B  
                               u2420 046A                                 u2180 02F8  
                               u2500 04EA                                 u1460 003F  
                               u1540 0EB4                                 u1620 0F72  
                               u1700 024B                                 u2421 0469  
                               u2325 03E7                                 u2181 02F7  
                               u2501 04E9                                 u1461 003E  
                               u1541 0EB3                                 u1621 0F71  
                               u1701 0249                                 u2430 0487  
                               u2350 0406                                 u2270 03A8  
                               u2190 0316                                 u2510 0501  
                               u1630 0F91                                 u1710 024C  
                               u2431 0486                                 u2415 0448  
                               u2351 0405                                 u2271 03A7  
                               u2255 0394                                 u2191 0315  
                               u2511 0500                                 u1455 0033  
                               u1631 0F90                                 u2440 049C  
                               u2360 040B                                 u2520 0506  
                               u1480 0050                                 u1560 0EC4  
                               u1640 0FC3                                 u1720 0287  
                               u2441 049B                                 u2425 0466  
                               u2361 040A                                 u2345 03F5  
                               u2265 039D                                 u2521 0505  
                               u1481 004F                                 u1561 0EC3  
                               u1641 0FC2                                 u1721 0286  
                               u2370 041F                                 u2290 03C4  
                               u2450 04B7                                 u1570 0ECE  
                               u1650 0FE4                                 u1730 028C  
                               u2435 0483                                 u2371 041E  
                               u2291 03C3                                 u2611 0648  
                               u2531 0553                                 u2451 04B6  
                               u1475 0040                                 u1571 0ECD  
                               u1555 0EB8                                 u1731 028B  
                               u2380 0426                                 u2700 072C  
                               u2612 064F                                 u2532 055A  
                               u2460 04BD                                 u1820 0C78  
                               u1660 0C29                                 u1740 0291  
                               u2381 0425                                 u2285 03AB  
                               u2701 072B                                 u2621 0673  
                               u2613 0656                                 u2605 0624  
                               u2541 056F                                 u2533 0561  
                               u2461 04BC                                 u1821 0C77  
                               u1485 004C                                 u1661 0C28  
                               u1645 0FBF                                 u1741 0290  
                               u1805 0CC0                                 u2390 042C  
                               u2622 067A                                 u2542 0576  
                               u2470 04C2                                 u1910 0F55  
                               u1830 0EFB                                 u1590 0EE1  
                               u1750 0296                                 u1670 0209  
                               u2391 042B                                 u2295 03C0  
                               u2631 069E                                 u2623 0681  
                               u2551 0599                                 u2543 057D  
                               u2471 04C1                                 u1911 0F54  
                               u1831 0EFA                                 u1495 0058  
                               u1591 0EE0                                 u1575 0ECA  
                               u1751 0295                                 u1671 0208  
                               u1815 0CE3                                 u2800 07BE  
                               u2720 0740                                 u2640 06C6  
                               u2632 06A5                                 u2552 05A0  
                               u2480 04DF                                 u1920 0F5A  
                               u1840 0F12                                 u1760 02BD  
                               u1680 0225                                 u2801 07BD  
                               u2721 073F                                 u2633 06AC  
                               u2561 05B5                                 u2553 05A7  
                               u2481 04DE                                 u1921 0F59  
                               u1905 0F47                                 u1585 0ED5  
                               u1761 02BC                                 u1681 0224  
                               u1930 0D57                                 u2810 07DA  
                               u2730 0745                                 u2562 05BC  
                               u2490 04E5                                 u1850 0F26  
                               u1690 0231                                 u1931 0D56  
                               u2811 07D9                                 u2731 0744  
                               u2715 072F                                 u2651 06D2  
                               u2563 05C3                                 u2491 04E4  
                               u1851 0F25                                 u1691 0230  
                               u2740 0759                                 u2660 06EE  
                               u2652 06D9                                 u1860 0F2D  
                               u2805 07BA                                 u2741 0758  
                               u2653 06E0                                 u2645 06C1  
                               u2581 05E9                                 u1861 0F2C  
                               u1845 0F0D                                 u1950 0D6B  
                               u2750 0760                                 u2582 05F0  
                               u1790 0D44                                 u1951 0D6A  
                               u2751 075F                                 u2671 06FA  
                               u2591 0614                                 u2583 05F7  
                               u2575 05C5                                 u1791 0D43  
                               u1775 0D8A                                 u2760 0766  
                               u2672 0701                                 u2592 061B  
                               u1880 0F3D                                 u1960 0079  
                               u1945 0D5E                                 u2761 0765  
                               u2673 0708                                 u2665 06E9  
                               u2593 0622                                 u1881 0F3C  
                               u1961 0078                                 u1785 0D9C  
                               u2770 0778                                 u1890 0F44  
                               u1970 007D                                 u2771 0777  
                               u1891 0F43                                 u1875 0F2F  
                               u1971 007C                                 u2827 0E50  
                               u2780 0787                                 u1980 009D  
                               u2685 070A                                 u1981 009C  
                               u2837 0E5F                                 u2790 07A4  
                               u2791 07A3                                 u2695 0721  
                               u2847 0E6B                                 u2785 0782  
                               u2857 0DFB                                 u2795 07A0  
                               u1995 00AC                                 _RCIF 0065  
                               _SPEN 00C7                 _lcd_4bit_send_string 0C36  
                               _TXEN 04C5                                 _TXIF 0064  
                               _SYNC 04C4        ??_lcd_4bit_send_enable_signal 0070  
                               abs@a 0076                                 _dbuf 00A0  
                               _main 0127                                 _prec 006A  
                               btemp 007E                                 start 0000  
                    ___fldiv@new_exp 004C                _lcd_4bit_send_command 0CB9  
                              ??_abs 0078                        ___fltol@sign1 005C  
                              ?_main 0070                      __end_of___fldiv 04A9  
                    __end_of___awdiv 0073                                _BRG16 0C3B  
                    __end_of___awmod 0EF0                      __end_of___flmul 07EB  
                    __end_of___fltol 0F66                                _ANSEL 0188  
                    ___awdiv@divisor 0070                      ___awdiv@counter 0074  
                              _RCREG 001A                         vfpfcnvrt@fmt 0022  
                              _SPBRG 0099                                _TXREG 0019  
          lcd_4bit_set_cursor@coulmn 0075                                _flags 006E  
                              _fputc 0F66                                _width 0068  
                              _putch 0004                ?_lcd_4bit_send_string 0075  
                              pclath 000A                                status 0003  
                              wtemp0 007E                      __end_of_sprintf 0CB9  
                    __initialization 07EB                         __end_of_main 01F9  
                             ??_main 0064                               _ADCON0 001F  
                             _ADCON1 009F                               ?_fputc 0070  
                             _ADRESH 001E                               _ADRESL 009E  
                   ___awdiv@dividend 0072                               ?_putch 0070  
                             _ANSELH 0189                     __end_of_adc_read 0E44  
                      vfpfcnvrt@done 0026  convert_uint16_to_string@Temp_String 0047  
                             _TRISA0 0428                               _TRISD0 0440  
                             _TRISD1 0441                               _TRISD2 0442  
                             _TRISD3 0443                               _TRISC6 043E  
                             _TRISD4 0444                               _TRISC7 043F  
                             _TRISD5 0445                     __end_of___xxtofl 0127  
             ?_lcd_4bit_send_command 0070                         vfprintf@cfmt 007D  
                          ??___fldiv 0042                            ??___awdiv 0074  
                          ??___awmod 0074                            ??___flmul 0028  
                          ??___fltol 0058                               _memset 0C60  
                   ___awdiv@quotient 0076                      ___awmod@divisor 0070  
                    ___awmod@counter 0074                               fputc@c 0070  
                             putch@c 0070                     __end_of_vfprintf 0D49  
             ??_lcd_4bit_send_string 0076                            ??_sprintf 0035  
                       ___xxtofl@arg 007A                         ___xxtofl@exp 0079  
                       ___xxtofl@val 0070              __end_of__initialization 07FC  
                         ___fltol@f1 0054                     ??_lcd_send_4bits 0070  
            _lcd_4bit_send_char_data 0CDC                       __pcstackCOMMON 0070  
                      __end_of_fputc 1000                        __end_of_putch 0005  
                         _adc_output 006F                              ??_fputc 0074  
            lcd_4bit_send_string@str 0075                              ??_putch 0070  
                         __pbssBANK0 0068                           __pbssBANK1 00A0  
                  __end_of__Umul8_16 0D70                           __pmaintext 0127  
        convert_uint16_to_string@str 0044                              ?_memset 0070  
         __end_of_uart_tx_initialize 0C60                            ?_adc_read 005E  
                     _lcd_4bit_clear 0C0C                            ?___xxtofl 0070  
                         __stringtab 0800            ??_lcd_4bit_send_char_data 0073  
                     _adc_initialize 0CFF                              ___fldiv 02DF  
                            ___awdiv 0010                              ___awmod 0E99  
                            ___flmul 04A9                              ___fltol 0EF0  
                          ?_vfprintf 002D               __end_of_lcd_4bit_clear 0C13  
                         ??_adc_read 0060                              __ptext1 0C4A  
                            __ptext2 0005                              __ptext3 0C79  
                            __ptext4 0C36                              __ptext5 0CDC  
                            __ptext6 0E44                              __ptext7 0C0C  
                            __ptext8 0CB9                              __ptext9 0D70  
           _convert_uint16_to_string 0DAD                           ??___xxtofl 0074  
                   ___awmod@dividend 0072                              _sprintf 0C96  
                            clrloop0 0C14                 end_of_initialization 07FC  
                            fputc@fp 0072                              memset@c 0071  
                            memset@n 0073                              memset@p 0075  
         __end_of_lcd_4bit_intialize 0E99              ??_lcd_4bit_send_command 0073  
                  __end_of_uart_send 0010               __end_of_adc_initialize 0D24  
                  __end_of_vfpfcnvrt 02DF                     vfpfcnvrt@convarg 0028  
                         ??_vfprintf 007D                      ?_lcd_4bit_clear 0070  
    __end_of_lcd_4bit_send_char_data 0CFF                            _PORTDbits 0008  
                      ___xxtofl@sign 0078                          ___fldiv@grs 004E  
                        ___fldiv@rem 0047                          ___flmul@grs 002E  
                    ?_adc_initialize 0070                  _lcd_4bit_set_cursor 0C79  
      convert_uint16_to_string@F1967 00C0                          vfpfcnvrt@ap 0023  
                        vfpfcnvrt@cp 0027                          vfpfcnvrt@fp 0020  
                     __end_of_memset 0C79                  start_initialization 07EB  
       ?_lcd_4bit_send_enable_signal 0070                 ?_lcd_4bit_set_cursor 0075  
      convert_uint16_to_string@value 0042                          __end_of_abs 0C36  
                        vfprintf@fmt 002F                            __Umul8_16 0D49  
                           ??_memset 0075                           memset@dest 0070  
       lcd_4bit_send_command@command 0074                            ___fldiv@a 003A  
                          ___fldiv@b 003E                            ___flmul@a 0024  
                          ___flmul@b 0020                ??_lcd_4bit_set_cursor 0076  
                          ___latbits 0002                        __pcstackBANK0 0020  
                 _uart_tx_initialize 0C4A                  ?_uart_tx_initialize 0070  
         ??_convert_uint16_to_string 0045                             ?___fldiv 003A  
                           ?___awdiv 0070                             ?___awmod 0070  
                           ?___flmul 0020                             ?___fltol 0054  
                         ?__Umul8_16 0070                            __pstrings 0800  
               ??_uart_tx_initialize 0070                             ?_sprintf 0031  
                          clear_ram0 0C13        __end_of_lcd_4bit_send_command 0CDC  
                   ??_lcd_4bit_clear 0075                            _uart_send 0005  
                 _lcd_4bit_intialize 0E44                            _vfpfcnvrt 01F9  
                        __stringbase 0805                  ?_lcd_4bit_intialize 0070  
                         vfpfcnvrt@c 002C             ?_lcd_4bit_send_char_data 0070  
                   ??_adc_initialize 0070                     _adc_res_real_txt 00C6  
               ??_lcd_4bit_intialize 0075                           vfprintf@ap 0030  
                         vfprintf@fp 002D                           ?_uart_send 0070  
                        ??__Umul8_16 0072                           ?_vfpfcnvrt 0020  
             lcd_4bit_set_cursor@row 0076                   __end_of__stringtab 0806  
                           _adc_read 0DF7                           sprintf@fmt 0032  
                           ___xxtofl 0073                             __ptext10 0C1B  
                           __ptext11 0DAD                             __ptext20 0C60  
                           __ptext12 0C96                             __ptext21 0DF7  
                           __ptext13 0D24                             __ptext22 0073  
                           __ptext14 01F9                             __ptext23 0EF0  
                           __ptext15 0F66                             __ptext24 0CFF  
                           __ptext16 0004                             __ptext25 04A9  
                           __ptext17 0C25                             __ptext26 0D49  
                           __ptext18 0E99                             __ptext27 02DF  
                           __ptext19 0010  convert_uint16_to_string@DataCounter 004D  
     adc_read@_adc_conversion_result 0062     __end_of_convert_uint16_to_string 0DF7  
       __end_of_lcd_4bit_send_string 0C4A                             _vfprintf 0D24  
                     _lcd_send_4bits 0D70                       uart_send@value 0070  
                          sprintf@ap 0036                            stringcode 0800  
                        ??_uart_send 0070               __end_of_lcd_send_4bits 0DAD  
                        ??_vfpfcnvrt 0024          __end_of_lcd_4bit_set_cursor 0C96  
             __Umul8_16@multiplicand 0070                             sprintf@f 0037  
                           sprintf@s 0031                _adc_conversion_result 006C  
                           stringdir 0800                             stringtab 0800  
        lcd_4bit_send_char_data@data 0074                 __Umul8_16@multiplier 0078  
                  __Umul8_16@product 0074  
